(dp1
S'acces'
p2
(dp3
S'length'
p4
I512
sS'unique'
p5
I00
sS'sortable'
p6
I3
sS'sql'
p7
S'INT  NULL , CONSTRAINT app_acces__constraint FOREIGN KEY (acces) REFERENCES acces (id) ON DELETE CASCADE'
p8
sS'notnull'
p9
I00
sS'type'
p10
S'reference acces'
p11
ssS'code'
p12
(dp13
g4
I512
sg5
I00
sg6
I2
sg7
S'VARCHAR(512) NULL'
p14
sg9
I00
sg10
S'string'
p15
ssS'id'
p16
(dp17
g4
I512
sg5
I00
sg6
I1
sg7
S'INT IDENTITY PRIMARY KEY'
p18
sg9
I00
sg10
g16
ss.