(dp1
S'groupe'
p2
(dp3
S'length'
p4
I512
sS'unique'
p5
I00
sS'sortable'
p6
I3
sS'sql'
p7
S'VARCHAR(512) NULL'
p8
sS'notnull'
p9
I00
sS'type'
p10
S'string'
p11
ssS'code'
p12
(dp13
S'sortable'
p14
I2
sS'sql'
p15
S'VARCHAR(512) NULL'
p16
sS'length'
p17
I512
sS'notnull'
p18
I00
sS'unique'
p19
I00
sS'type'
p20
S'string'
p21
ssS'id'
p22
(dp23
g14
I1
sg15
S'INT IDENTITY PRIMARY KEY'
p24
sg17
I512
sg18
I00
sg19
I00
sg20
S'id'
p25
ss.