(dp0
S'id'
p1
(dp2
S'rname'
p3
S'"id"'
p4
sS'sortable'
p5
I1
sS'raw_rname'
p6
S'id'
p7
sS'sql'
p8
S'INT IDENTITY PRIMARY KEY'
p9
sS'length'
p10
I512
sS'notnull'
p11
I00
sS'unique'
p12
I00
sS'type'
p13
S'id'
p14
ssS'created'
p15
(dp16
g3
S'"created"'
p17
sS'sortable'
p18
I2
sg6
S'created'
p19
sS'notnull'
p20
I00
sS'length'
p21
I512
sS'sql'
p22
S'DATE NULL'
p23
sS'unique'
p24
I00
sS'type'
p25
S'date'
p26
ss.