(dp1
S'is_active'
p2
(dp3
S'length'
p4
I512
sS'unique'
p5
I00
sS'sortable'
p6
I4
sS'sql'
p7
S'BIT NULL'
p8
sS'notnull'
p9
I00
sS'type'
p10
S'boolean'
p11
ssS'id'
p12
(dp13
g4
I512
sg5
I00
sg6
I1
sg7
S'INT IDENTITY PRIMARY KEY'
p14
sg9
I00
sg10
g12
ssS'groups'
p15
(dp16
g4
I512
sg5
I00
sg6
I2
sg7
S'INT NULL'
p17
sg9
I00
sg10
S'integer'
p18
ssS'title'
p19
(dp20
g4
I50
sg5
I00
sg6
I3
sg7
S'VARCHAR(50) NULL'
p21
sg9
I00
sg10
S'string'
p22
ss.