(dp1
S'switch'
p2
(dp3
S'length'
p4
I512
sS'unique'
p5
I00
sS'sortable'
p6
I3
sS'sql'
p7
S'INT  NULL , CONSTRAINT vmw_swport_switch__constraint FOREIGN KEY (switch) REFERENCES vmw_switch (id) ON DELETE CASCADE'
p8
sS'notnull'
p9
I00
sS'type'
p10
S'reference vmw_switch'
p11
ssS'id'
p12
(dp13
g4
I512
sg5
I00
sg6
I1
sg7
S'INT IDENTITY PRIMARY KEY'
p14
sg9
I00
sg10
g12
ssS'name'
p15
(dp16
g4
I512
sg5
I00
sg6
I2
sg7
S'VARCHAR(512) NULL'
p17
sg9
I00
sg10
S'string'
p18
ss.