(dp1
S'working_data'
p2
(dp3
S'length'
p4
I4096
sS'unique'
p5
I00
sS'sortable'
p6
I3
sS'sql'
p7
S'VARCHAR(4096) NULL'
p8
sS'notnull'
p9
I00
sS'type'
p10
S'string'
p11
ssS'id'
p12
(dp13
g4
I512
sg5
I00
sg6
I1
sg7
S'INT IDENTITY PRIMARY KEY'
p14
sg9
I00
sg10
g12
ssS'auth_ID'
p15
(dp16
g4
I512
sg5
I00
sg6
I2
sg7
S'INT NULL'
p17
sg9
I00
sg10
S'integer'
p18
ss.