(dp1
S'output'
p2
S''
sS'layer'
p3
S'Framework'
p4
sS'code'
p5
S''
sS'snapshot'
p6
(dp7
S'exception'
p8
(dp9
S'__getslice__'
p10
S"<method-wrapper '__getslice__' of exceptions.MemoryError object>"
p11
sS'__str__'
p12
S"<method-wrapper '__str__' of exceptions.MemoryError object>"
p13
sS'__reduce__'
p14
S'<built-in method __reduce__ of exceptions.MemoryError object>'
p15
sS'__dict__'
p16
S'{}'
p17
sS'message'
p18
S"''"
p19
sS'__sizeof__'
p20
S'<built-in method __sizeof__ of exceptions.MemoryError object>'
p21
sS'__init__'
p22
S"<method-wrapper '__init__' of exceptions.MemoryError object>"
p23
sS'__setattr__'
p24
S"<method-wrapper '__setattr__' of exceptions.MemoryError object>"
p25
sS'__reduce_ex__'
p26
S'<built-in method __reduce_ex__ of exceptions.MemoryError object>'
p27
sS'__new__'
p28
S'<built-in method __new__ of type object>'
p29
sS'__format__'
p30
S'<built-in method __format__ of exceptions.MemoryError object>'
p31
sS'__class__'
p32
S"<type 'exceptions.MemoryError'>"
p33
sS'__doc__'
p34
S"'Out of memory.'"
p35
sS'__getitem__'
p36
S"<method-wrapper '__getitem__' of exceptions.MemoryError object>"
p37
sS'__setstate__'
p38
S'<built-in method __setstate__ of exceptions.MemoryError object>'
p39
sS'__getattribute__'
p40
S"<method-wrapper '__getattribute__' of exceptions.MemoryError object>"
p41
sS'args'
p42
S'()'
p43
sS'__subclasshook__'
p44
S'<built-in method __subclasshook__ of type object>'
p45
sS'__unicode__'
p46
S'<built-in method __unicode__ of exceptions.MemoryError object>'
p47
sS'__delattr__'
p48
S"<method-wrapper '__delattr__' of exceptions.MemoryError object>"
p49
sS'__repr__'
p50
S"<method-wrapper '__repr__' of exceptions.MemoryError object>"
p51
sS'__hash__'
p52
S"<method-wrapper '__hash__' of exceptions.MemoryError object>"
p53
ssS'evalue'
p54
S''
sS'request'
p55
cgluon.html
XML_unpickle
p56
(S's\x01d\x00\x00<div><table><tr><td style="font-weight:bold;vertical-align:top;">ajax</td><td style="vertical-align:top;">:</td><td><div>False</div></td></tr><tr><td style="font-weight:bold;vertical-align:top;">application</td><td style="vertical-align:top;">:</td><td><div>init</div></td></tr><tr><td style="font-weight:bold;vertical-align:top;">args</td><td style="vertical-align:top;">:</td><td><div><table></table></div></td></tr><tr><td style="font-weight:bold;vertical-align:top;">cid</td><td style="vertical-align:top;">:</td><td><div>None</div></td></tr><tr><td style="font-weight:bold;vertical-align:top;">client</td><td style="vertical-align:top;">:</td><td><div>10.129.64.51</div></td></tr><tr><td style="font-weight:bold;vertical-align:top;">controller</td><td style="vertical-align:top;">:</td><td><div>default</div></td></tr><tr><td style="font-weight:bold;vertical-align:top;">cookies</td><td style="vertical-align:top;">:</td><td><div><table></table></div></td></tr><tr><td style="font-weight:bold;vertical-align:top;">env</td><td style="vertical-align:top;">:</td><td><div><table><tr><td style="font-weight:bold;vertical-align:top;">APPL_MD_PATH</td><td style="vertical-align:top;">:</td><td><div>/LM/W3SVC/2/ROOT</div></td></tr><tr><td style="font-weight:bold;vertical-align:top;">APPL_PHYSICAL_PATH</td><td style="vertical-align:top;">:</td><td><div>C:\\Users\\unificace\\unificace\\web2py\\</div></td></tr><tr><td style="font-weight:bold;vertical-align:top;">APP_POOL_CONFIG</td><td style="vertical-align:top;">:</td><td><div>C:\\inetpub\\temp\\apppools\\unificace\\unificace.config</div></td></tr><tr><td style="font-weight:bold;vertical-align:top;">APP_POOL_ID</td><td style="vertical-align:top;">:</td><td><div>unificace</div></td></tr><tr><td style="font-weight:bold;vertical-align:top;">AUTH_PASSWORD</td><td style="vertical-align:top;">:</td><td><div></div></td></tr><tr><td style="font-weight:bold;vertical-align:top;">AUTH_TYPE</td><td style="vertical-align:top;">:</td><td><div></div></td></tr><tr><td style="font-weight:bold;vertical-align:top;">AUTH_USER</td><td style="vertical-align:top;">:</td><td><div></div></td></tr><tr><td style="font-weight:bold;vertical-align:top;">CERT_COOKIE</td><td style="vertical-align:top;">:</td><td><div></div></td></tr><tr><td style="font-weight:bold;vertical-align:top;">CERT_FLAGS</td><td style="vertical-align:top;">:</td><td><div></div></td></tr><tr><td style="font-weight:bold;vertical-align:top;">CERT_ISSUER</td><td style="vertical-align:top;">:</td><td><div></div></td></tr><tr><td style="font-weight:bold;vertical-align:top;">CERT_SERIALNUMBER</td><td style="vertical-align:top;">:</td><td><div></div></td></tr><tr><td style="font-weight:bold;vertical-align:top;">CERT_SUBJECT</td><td style="vertical-align:top;">:</td><td><div></div></td></tr><tr><td style="font-weight:bold;vertical-align:top;">CONTENT_LENGTH</td><td style="vertical-align:top;">:</td><td><div>0</div></td></tr><tr><td style="font-weight:bold;vertical-align:top;">CONTENT_TYPE</td><td style="vertical-align:top;">:</td><td><div></div></td></tr><tr><td style="font-weight:bold;vertical-align:top;">DOCUMENT_ROOT</td><td style="vertical-align:top;">:</td><td><div>C:\\Users\\unificace\\unificace\\web2py</div></td></tr><tr><td style="font-weight:bold;vertical-align:top;">GATEWAY_INTERFACE</td><td style="vertical-align:top;">:</td><td><div>CGI/1.1</div></td></tr><tr><td style="font-weight:bold;vertical-align:top;">HTTPS</td><td style="vertical-align:top;">:</td><td><div>on</div></td></tr><tr><td style="font-weight:bold;vertical-align:top;">HTTPS_KEYSIZE</td><td style="vertical-align:top;">:</td><td><div>256</div></td></tr><tr><td style="font-weight:bold;vertical-align:top;">HTTPS_SECRETKEYSIZE</td><td style="vertical-align:top;">:</td><td><div>2048</div></td></tr><tr><td style="font-weight:bold;vertical-align:top;">HTTPS_SERVER_ISSUER</td><td style="vertical-align:top;">:</td><td><div>C=US, O=&quot;Entrust, Inc.&quot;, OU=See www.entrust.net/legal-terms, OU=&quot;(c) 2012 Entrust, Inc. - for authorized use only&quot;, CN=Entrust Certification Authority - L1K</div></td></tr><tr><td style="font-weight:bold;vertical-align:top;">HTTPS_SERVER_SUBJECT</td><td style="vertical-align:top;">:</td><td><div>C=CA, S=Quebec, L=Quebec, O=Minist\xe8re de la sant\xe9 et des services sociaux du Qu\xe9bec, CN=*.cemtl.rtss.qc.ca</div></td></tr><tr><td style="font-weight:bold;vertical-align:top;">HTTP_CONNECTION</td><td style="vertical-align:top;">:</td><td><div>Close</div></td></tr><tr><td style="font-weight:bold;vertical-align:top;">HTTP_CONTENT_LENGTH</td><td style="vertical-align:top;">:</td><td><div>0</div></td></tr><tr><td style="font-weight:bold;vertical-align:top;">HTTP_HOST</td><td style="vertical-align:top;">:</td><td><div>10.129.65.41:443</div></td></tr><tr><td style="font-weight:bold;vertical-align:top;">HTTP_X_ORIGINAL_URL</td><td style="vertical-align:top;">:</td><td><div>/</div></td></tr><tr><td style="font-weight:bold;vertical-align:top;">IIS_UrlRewriteModule</td><td style="vertical-align:top;">:</td><td><div>7.1.1980.0</div></td></tr><tr><td style="font-weight:bold;vertical-align:top;">IIS_WasUrlRewritten</td><td style="vertical-align:top;">:</td><td><div>1</div></td></tr><tr><td style="font-weight:bold;vertical-align:top;">INSTANCE_ID</td><td style="vertical-align:top;">:</td><td><div>2</div></td></tr><tr><td style="font-weight:bold;vertical-align:top;">INSTANCE_META_PATH</td><td style="vertical-align:top;">:</td><td><div>/LM/W3SVC/2</div></td></tr><tr><td style="font-weight:bold;vertical-align:top;">INSTANCE_NAME</td><td style="vertical-align:top;">:</td><td><div>UNIFICACE</div></td></tr><tr><td style="font-weight:bold;vertical-align:top;">LOCAL_ADDR</td><td style="vertical-align:top;">:</td><td><div>10.129.65.41</div></td></tr><tr><td style="font-weight:bold;vertical-align:top;">LOGON_USER</td><td style="vertical-align:top;">:</td><td><div></div></td></tr><tr><td style="font-weight:bold;vertical-align:top;">PATH_INFO</td><td style="vertical-align:top;">:</td><td><div>/</div></td></tr><tr><td style="font-weight:bold;vertical-align:top;">PATH_TRANSLATED</td><td style="vertical-align:top;">:</td><td><div>C:\\Users\\unificace\\unificace\\web2py\\handler.web2py\\</div></td></tr><tr><td style="font-weight:bold;vertical-align:top;">QUERY_STRING</td><td style="vertical-align:top;">:</td><td><div></div></td></tr><tr><td style="font-weight:bold;vertical-align:top;">REMOTE_ADDR</td><td style="vertical-align:top;">:</td><td><div>10.129.64.51</div></td></tr><tr><td style="font-weight:bold;vertical-align:top;">REMOTE_HOST</td><td style="vertical-align:top;">:</td><td><div>10.129.64.51</div></td></tr><tr><td style="font-weight:bold;vertical-align:top;">REMOTE_PORT</td><td style="vertical-align:top;">:</td><td><div>3704</div></td></tr><tr><td style="font-weight:bold;vertical-align:top;">REMOTE_USER</td><td style="vertical-align:top;">:</td><td><div></div></td></tr><tr><td style="font-weight:bold;vertical-align:top;">REQUEST_METHOD</td><td style="vertical-align:top;">:</td><td><div>HEAD</div></td></tr><tr><td style="font-weight:bold;vertical-align:top;">REQUEST_URI</td><td style="vertical-align:top;">:</td><td><div>/</div></td></tr><tr><td style="font-weight:bold;vertical-align:top;">SCRIPT_FILENAME</td><td style="vertical-align:top;">:</td><td><div>C:\\Users\\unificace\\unificace\\web2py\\handler.web2py</div></td></tr><tr><td style="font-weight:bold;vertical-align:top;">SCRIPT_NAME</td><td style="vertical-align:top;">:</td><td><div></div></td></tr><tr><td style="font-weight:bold;vertical-align:top;">SERVER_NAME</td><td style="vertical-align:top;">:</td><td><div>10.129.65.41</div></td></tr><tr><td style="font-weight:bold;vertical-align:top;">SERVER_PORT</td><td style="vertical-align:top;">:</td><td><div>443</div></td></tr><tr><td style="font-weight:bold;vertical-align:top;">SERVER_PORT_SECURE</td><td style="vertical-align:top;">:</td><td><div>1</div></td></tr><tr><td style="font-weight:bold;vertical-align:top;">SERVER_PROTOCOL</td><td style="vertical-align:top;">:</td><td><div>HTTP/1.1</div></td></tr><tr><td style="font-weight:bold;vertical-align:top;">SERVER_SOFTWARE</td><td style="vertical-align:top;">:</td><td><div>Microsoft-IIS/8.5</div></td></tr><tr><td style="font-weight:bold;vertical-align:top;">UNENCODED_URL</td><td style="vertical-align:top;">:</td><td><div>/</div></td></tr><tr><td style="font-weight:bold;vertical-align:top;">URL</td><td style="vertical-align:top;">:</td><td><div>/handler.web2py</div></td></tr><tr><td style="font-weight:bold;vertical-align:top;">app_folders</td><td style="vertical-align:top;">:</td><td><div>set([&#x27;C:\\\\Users\\\\unificace\\\\unificace\\\\web2py\\\\applications\\\\init\\\\&#x27;])</div></td></tr><tr><td style="font-weight:bold;vertical-align:top;">app_pool_config</td><td style="vertical-align:top;">:</td><td><div>C:\\inetpub\\temp\\apppools\\unificace\\unificace.config</div></td></tr><tr><td style="font-weight:bold;vertical-align:top;">app_pool_id</td><td style="vertical-align:top;">:</td><td><div>unificace</div></td></tr><tr><td style="font-weight:bold;vertical-align:top;">appl_md_path</td><td style="vertical-align:top;">:</td><td><div>/LM/W3SVC/2/ROOT</div></td></tr><tr><td style="font-weight:bold;vertical-align:top;">appl_physical_path</td><td style="vertical-align:top;">:</td><td><div>C:\\Users\\unificace\\unificace\\web2py\\</div></td></tr><tr><td style="font-weight:bold;vertical-align:top;">applications_parent</td><td style="vertical-align:top;">:</td><td><div>C:\\Users\\unificace\\unificace\\web2py</div></td></tr><tr><td style="font-weight:bold;vertical-align:top;">auth_password</td><td style="vertical-align:top;">:</td><td><div></div></td></tr><tr><td style="font-weight:bold;vertical-align:top;">auth_type</td><td style="vertical-align:top;">:</td><td><div></div></td></tr><tr><td style="font-weight:bold;vertical-align:top;">auth_user</td><td style="vertical-align:top;">:</td><td><div></div></td></tr><tr><td style="font-weight:bold;vertical-align:top;">cert_cookie</td><td style="vertical-align:top;">:</td><td><div></div></td></tr><tr><td style="font-weight:bold;vertical-align:top;">cert_flags</td><td style="vertical-align:top;">:</td><td><div></div></td></tr><tr><td style="font-weight:bold;vertical-align:top;">cert_issuer</td><td style="vertical-align:top;">:</td><td><div></div></td></tr><tr><td style="font-weight:bold;vertical-align:top;">cert_serialnumber</td><td style="vertical-align:top;">:</td><td><div></div></td></tr><tr><td style="font-weight:bold;vertical-align:top;">cert_subject</td><td style="vertical-align:top;">:</td><td><div></div></td></tr><tr><td style="font-weight:bold;vertical-align:top;">content_length</td><td style="vertical-align:top;">:</td><td><div>0</div></td></tr><tr><td style="font-weight:bold;vertical-align:top;">content_type</td><td style="vertical-align:top;">:</td><td><div></div></td></tr><tr><td style="font-weight:bold;vertical-align:top;">db_sessions</td><td style="vertical-align:top;">:</td><td><div>set([])</div></td></tr><tr><td style="font-weight:bold;vertical-align:top;">debugging</td><td style="vertical-align:top;">:</td><td><div>False</div></td></tr><tr><td style="font-weight:bold;vertical-align:top;">document_root</td><td style="vertical-align:top;">:</td><td><div>C:\\Users\\unificace\\unificace\\web2py</div></td></tr><tr><td style="font-weight:bold;vertical-align:top;">gateway_interface</td><td style="vertical-align:top;">:</td><td><div>CGI/1.1</div></td></tr><tr><td style="font-weight:bold;vertical-align:top;">gluon_parent</td><td style="vertical-align:top;">:</td><td><div>C:\\Users\\unificace\\unificace\\web2py</div></td></tr><tr><td style="font-weight:bold;vertical-align:top;">http_connection</td><td style="vertical-align:top;">:</td><td><div>Close</div></td></tr><tr><td style="font-weight:bold;vertical-align:top;">http_content_length</td><td style="vertical-align:top;">:</td><td><div>0</div></td></tr><tr><td style="font-weight:bold;vertical-align:top;">http_host</td><td style="vertical-align:top;">:</td><td><div>10.129.65.41:443</div></td></tr><tr><td style="font-weight:bold;vertical-align:top;">http_x_original_url</td><td style="vertical-align:top;">:</td><td><div>/</div></td></tr><tr><td style="font-weight:bold;vertical-align:top;">https</td><td style="vertical-align:top;">:</td><td><div>on</div></td></tr><tr><td style="font-weight:bold;vertical-align:top;">https_keysize</td><td style="vertical-align:top;">:</td><td><div>256</div></td></tr><tr><td style="font-weight:bold;vertical-align:top;">https_secretkeysize</td><td style="vertical-align:top;">:</td><td><div>2048</div></td></tr><tr><td style="font-weight:bold;vertical-align:top;">https_server_issuer</td><td style="vertical-align:top;">:</td><td><div>C=US, O=&quot;Entrust, Inc.&quot;, OU=See www.entrust.net/legal-terms, OU=&quot;(c) 2012 Entrust, Inc. - for authorized use only&quot;, CN=Entrust Certification Authority - L1K</div></td></tr><tr><td style="font-weight:bold;vertical-align:top;">https_server_subject</td><td style="vertical-align:top;">:</td><td><div>C=CA, S=Quebec, L=Quebec, O=Minist\xe8re de la sant\xe9 et des services sociaux du Qu\xe9bec, CN=*.cemtl.rtss.qc.ca</div></td></tr><tr><td style="font-weight:bold;vertical-align:top;">iis_urlrewritemodule</td><td style="vertical-align:top;">:</td><td><div>7.1.1980.0</div></td></tr><tr><td style="font-weight:bold;vertical-align:top;">iis_wasurlrewritten</td><td style="vertical-align:top;">:</td><td><div>1</div></td></tr><tr><td style="font-weight:bold;vertical-align:top;">instance_id</td><td style="vertical-align:top;">:</td><td><div>2</div></td></tr><tr><td style="font-weight:bold;vertical-align:top;">instance_meta_path</td><td style="vertical-align:top;">:</td><td><div>/LM/W3SVC/2</div></td></tr><tr><td style="font-weight:bold;vertical-align:top;">instance_name</td><td style="vertical-align:top;">:</td><td><div>UNIFICACE</div></td></tr><tr><td style="font-weight:bold;vertical-align:top;">is_jython</td><td style="vertical-align:top;">:</td><td><div>False</div></td></tr><tr><td style="font-weight:bold;vertical-align:top;">is_py2</td><td style="vertical-align:top;">:</td><td><div>True</div></td></tr><tr><td style="font-weight:bold;vertical-align:top;">is_pypy</td><td style="vertical-align:top;">:</td><td><div>False</div></td></tr><tr><td style="font-weight:bold;vertical-align:top;">is_source</td><td style="vertical-align:top;">:</td><td><div>True</div></td></tr><tr><td style="font-weight:bold;vertical-align:top;">local_addr</td><td style="vertical-align:top;">:</td><td><div>10.129.65.41</div></td></tr><tr><td style="font-weight:bold;vertical-align:top;">local_hosts</td><td style="vertical-align:top;">:</td><td><div><table><tr><td><div>S03VWPR00031</div></td></tr><tr><td><div>::ffff:127.0.0.1</div></td></tr><tr><td><div>::1</div></td></tr><tr><td><div>10.129.65.41</div></td></tr><tr><td><div>S03VWPR00031.cemtl.rtss.qc.ca</div></td></tr><tr><td><div>127.0.0.1</div></td></tr></table></div></td></tr><tr><td style="font-weight:bold;vertical-align:top;">logon_user</td><td style="vertical-align:top;">:</td><td><div></div></td></tr><tr><td style="font-weight:bold;vertical-align:top;">path_info</td><td style="vertical-align:top;">:</td><td><div>/</div></td></tr><tr><td style="font-weight:bold;vertical-align:top;">path_translated</td><td style="vertical-align:top;">:</td><td><div>C:\\Users\\unificace\\unificace\\web2py\\handler.web2py\\</div></td></tr><tr><td style="font-weight:bold;vertical-align:top;">query_string</td><td style="vertical-align:top;">:</td><td><div></div></td></tr><tr><td style="font-weight:bold;vertical-align:top;">remote_addr</td><td style="vertical-align:top;">:</td><td><div>10.129.64.51</div></td></tr><tr><td style="font-weight:bold;vertical-align:top;">remote_host</td><td style="vertical-align:top;">:</td><td><div>10.129.64.51</div></td></tr><tr><td style="font-weight:bold;vertical-align:top;">remote_port</td><td style="vertical-align:top;">:</td><td><div>3704</div></td></tr><tr><td style="font-weight:bold;vertical-align:top;">remote_user</td><td style="vertical-align:top;">:</td><td><div></div></td></tr><tr><td style="font-weight:bold;vertical-align:top;">request_method</td><td style="vertical-align:top;">:</td><td><div>HEAD</div></td></tr><tr><td style="font-weight:bold;vertical-align:top;">request_uri</td><td style="vertical-align:top;">:</td><td><div>/</div></td></tr><tr><td style="font-weight:bold;vertical-align:top;">script_filename</td><td style="vertical-align:top;">:</td><td><div>C:\\Users\\unificace\\unificace\\web2py\\handler.web2py</div></td></tr><tr><td style="font-weight:bold;vertical-align:top;">script_name</td><td style="vertical-align:top;">:</td><td><div></div></td></tr><tr><td style="font-weight:bold;vertical-align:top;">server_name</td><td style="vertical-align:top;">:</td><td><div>10.129.65.41</div></td></tr><tr><td style="font-weight:bold;vertical-align:top;">server_port</td><td style="vertical-align:top;">:</td><td><div>443</div></td></tr><tr><td style="font-weight:bold;vertical-align:top;">server_port_secure</td><td style="vertical-align:top;">:</td><td><div>1</div></td></tr><tr><td style="font-weight:bold;vertical-align:top;">server_protocol</td><td style="vertical-align:top;">:</td><td><div>HTTP/1.1</div></td></tr><tr><td style="font-weight:bold;vertical-align:top;">server_software</td><td style="vertical-align:top;">:</td><td><div>Microsoft-IIS/8.5</div></td></tr><tr><td style="font-weight:bold;vertical-align:top;">unencoded_url</td><td style="vertical-align:top;">:</td><td><div>/</div></td></tr><tr><td style="font-weight:bold;vertical-align:top;">url</td><td style="vertical-align:top;">:</td><td><div>/handler.web2py</div></td></tr><tr><td style="font-weight:bold;vertical-align:top;">web2py_path</td><td style="vertical-align:top;">:</td><td><div>C:\\Users\\unificace\\unificace\\web2py</div></td></tr><tr><td style="font-weight:bold;vertical-align:top;">web2py_version</td><td style="vertical-align:top;">:</td><td><div>2.16.1-stable+timestamp.2017.11.14.05.54.25</div></td></tr><tr><td style="font-weight:bold;vertical-align:top;">wfastcgi.http_x_original_url</td><td style="vertical-align:top;">:</td><td><div>/</div></td></tr><tr><td style="font-weight:bold;vertical-align:top;">wfastcgi_http_x_original_url</td><td style="vertical-align:top;">:</td><td><div>/</div></td></tr><tr><td style="font-weight:bold;vertical-align:top;">wsgi.errors</td><td style="vertical-align:top;">:</td><td><div>&lt;cStringIO.StringO object at 0x0000000005992AE8&gt;</div></td></tr><tr><td style="font-weight:bold;vertical-align:top;">wsgi.input</td><td style="vertical-align:top;">:</td><td><div>&lt;cStringIO.StringI object at 0x0000000006040CF0&gt;</div></td></tr><tr><td style="font-weight:bold;vertical-align:top;">wsgi.multiprocess</td><td style="vertical-align:top;">:</td><td><div>True</div></td></tr><tr><td style="font-weight:bold;vertical-align:top;">wsgi.multithread</td><td style="vertical-align:top;">:</td><td><div>False</div></td></tr><tr><td style="font-weight:bold;vertical-align:top;">wsgi.path_info</td><td style="vertical-align:top;">:</td><td><div>/</div></td></tr><tr><td style="font-weight:bold;vertical-align:top;">wsgi.query_string</td><td style="vertical-align:top;">:</td><td><div></div></td></tr><tr><td style="font-weight:bold;vertical-align:top;">wsgi.run_once</td><td style="vertical-align:top;">:</td><td><div>False</div></td></tr><tr><td style="font-weight:bold;vertical-align:top;">wsgi.script_name</td><td style="vertical-align:top;">:</td><td><div></div></td></tr><tr><td style="font-weight:bold;vertical-align:top;">wsgi.url_scheme</td><td style="vertical-align:top;">:</td><td><div>https</div></td></tr><tr><td style="font-weight:bold;vertical-align:top;">wsgi.version</td><td style="vertical-align:top;">:</td><td><div><table><tr><td><div>1</div></td></tr><tr><td><div>0</div></td></tr></table></div></td></tr><tr><td style="font-weight:bold;vertical-align:top;">wsgi_errors</td><td style="vertical-align:top;">:</td><td><div>&lt;cStringIO.StringO object at 0x0000000005992AE8&gt;</div></td></tr><tr><td style="font-weight:bold;vertical-align:top;">wsgi_input</td><td style="vertical-align:top;">:</td><td><div>&lt;cStringIO.StringI object at 0x0000000006040CF0&gt;</div></td></tr><tr><td style="font-weight:bold;vertical-align:top;">wsgi_multiprocess</td><td style="vertical-align:top;">:</td><td><div>True</div></td></tr><tr><td style="font-weight:bold;vertical-align:top;">wsgi_multithread</td><td style="vertical-align:top;">:</td><td><div>False</div></td></tr><tr><td style="font-weight:bold;vertical-align:top;">wsgi_path_info</td><td style="vertical-align:top;">:</td><td><div>/</div></td></tr><tr><td style="font-weight:bold;vertical-align:top;">wsgi_query_string</td><td style="vertical-align:top;">:</td><td><div></div></td></tr><tr><td style="font-weight:bold;vertical-align:top;">wsgi_run_once</td><td style="vertical-align:top;">:</td><td><div>False</div></td></tr><tr><td style="font-weight:bold;vertical-align:top;">wsgi_script_name</td><td style="vertical-align:top;">:</td><td><div></div></td></tr><tr><td style="font-weight:bold;vertical-align:top;">wsgi_url_scheme</td><td style="vertical-align:top;">:</td><td><div>https</div></td></tr><tr><td style="font-weight:bold;vertical-align:top;">wsgi_version</td><td style="vertical-align:top;">:</td><td><div><table><tr><td><div>1</div></td></tr><tr><td><div>0</div></td></tr></table></div></td></tr></table></div></td></tr><tr><td style="font-weight:bold;vertical-align:top;">extension</td><td style="vertical-align:top;">:</td><td><div>html</div></td></tr><tr><td style="font-weight:bold;vertical-align:top;">folder</td><td style="vertical-align:top;">:</td><td><div>C:\\Users\\unificace\\unificace\\web2py\\applications\\init\\</div></td></tr><tr><td style="font-weight:bold;vertical-align:top;">function</td><td style="vertical-align:top;">:</td><td><div>index</div></td></tr><tr><td style="font-weight:bold;vertical-align:top;">global_settings</td><td style="vertical-align:top;">:</td><td><div><table><tr><td style="font-weight:bold;vertical-align:top;">app_folders</td><td style="vertical-align:top;">:</td><td><div>set([&#x27;C:\\\\Users\\\\unificace\\\\unificace\\\\web2py\\\\applications\\\\init\\\\&#x27;])</div></td></tr><tr><td style="font-weight:bold;vertical-align:top;">applications_parent</td><td style="vertical-align:top;">:</td><td><div>C:\\Users\\unificace\\unificace\\web2py</div></td></tr><tr><td style="font-weight:bold;vertical-align:top;">db_sessions</td><td style="vertical-align:top;">:</td><td><div>set([])</div></td></tr><tr><td style="font-weight:bold;vertical-align:top;">debugging</td><td style="vertical-align:top;">:</td><td><div>False</div></td></tr><tr><td style="font-weight:bold;vertical-align:top;">gluon_parent</td><td style="vertical-align:top;">:</td><td><div>C:\\Users\\unificace\\unificace\\web2py</div></td></tr><tr><td style="font-weight:bold;vertical-align:top;">is_jython</td><td style="vertical-align:top;">:</td><td><div>False</div></td></tr><tr><td style="font-weight:bold;vertical-align:top;">is_py2</td><td style="vertical-align:top;">:</td><td><div>True</div></td></tr><tr><td style="font-weight:bold;vertical-align:top;">is_pypy</td><td style="vertical-align:top;">:</td><td><div>False</div></td></tr><tr><td style="font-weight:bold;vertical-align:top;">is_source</td><td style="vertical-align:top;">:</td><td><div>True</div></td></tr><tr><td style="font-weight:bold;vertical-align:top;">local_hosts</td><td style="vertical-align:top;">:</td><td><div><table><tr><td><div>S03VWPR00031</div></td></tr><tr><td><div>::ffff:127.0.0.1</div></td></tr><tr><td><div>::1</div></td></tr><tr><td><div>10.129.65.41</div></td></tr><tr><td><div>S03VWPR00031.cemtl.rtss.qc.ca</div></td></tr><tr><td><div>127.0.0.1</div></td></tr></table></div></td></tr><tr><td style="font-weight:bold;vertical-align:top;">web2py_version</td><td style="vertical-align:top;">:</td><td><div>2.16.1-stable+timestamp.2017.11.14.05.54.25</div></td></tr></table></div></td></tr><tr><td style="font-weight:bold;vertical-align:top;">is_https</td><td style="vertical-align:top;">:</td><td><div>True</div></td></tr><tr><td style="font-weight:bold;vertical-align:top;">is_local</td><td style="vertical-align:top;">:</td><td><div>False</div></td></tr><tr><td style="font-weight:bold;vertical-align:top;">is_restful</td><td style="vertical-align:top;">:</td><td><div>False</div></td></tr><tr><td style="font-weight:bold;vertical-align:top;">is_scheduler</td><td style="vertical-align:top;">:</td><td><div>False</div></td></tr><tr><td style="font-weight:bold;vertical-align:top;">is_shell</td><td style="vertical-align:top;">:</td><td><div>False</div></td></tr><tr><td style="font-weight:bold;vertical-align:top;">now</td><td style="vertical-align:top;">:</td><td><div>datetime.datetime(2022, 9, 3, 3, 30, 40, 88000)</div></td></tr><tr><td style="font-weight:bold;vertical-align:top;">raw_args</td><td style="vertical-align:top;">:</td><td><div></div></td></tr><tr><td style="font-weight:bold;vertical-align:top;">raw_extension</td><td style="vertical-align:top;">:</td><td><div>None</div></td></tr><tr><td style="font-weight:bold;vertical-align:top;">url</td><td style="vertical-align:top;">:</td><td><div>/</div></td></tr><tr><td style="font-weight:bold;vertical-align:top;">utcnow</td><td style="vertical-align:top;">:</td><td><div>datetime.datetime(2022, 9, 3, 7, 30, 40, 88000)</div></td></tr><tr><td style="font-weight:bold;vertical-align:top;">wsgi</td><td style="vertical-align:top;">:</td><td><div>&lt;gluon.main.LazyWSGI object at 0x0000000005992EB8&gt;</div></td></tr></table></div>'
tRp57
sS'frames'
p58
(lp59
(dp60
S'file'
p61
S'C:\\Users\\unificace\\unificace\\web2py\\gluon\\main.py'
p62
sS'dump'
p63
(dp64
S'e.log'
p65
S'<bound method RestrictedError.log of RestrictedError()>'
p66
sS'ticket'
p67
S'undefined'
p68
sS'e'
S'RestrictedError()'
p69
sS'request'
p70
S"<Storage {'_vars': None, 'function': 'index', 'c...icace\\\\unificace\\\\web2py\\\\applications\\\\init\\\\'}>"
p71
ssS'lnum'
p72
I514
sS'lines'
p73
(dp74
I512
S'                # log tickets before rollback if not in DB'
p75
sI513
S'                if not request.tickets_db:'
p76
sI514
S"                    ticket = e.log(request) or 'unknown'"
p77
sI515
S'                # rollback'
p78
sI516
S'                if response._custom_rollback:'
p79
sI517
S'                    response._custom_rollback()'
p80
sI518
S'                else:'
p81
sI509
S'                # on application error, rollback database'
p82
sI510
S'                # ##################################################'
p83
sI511
S''
ssS'call'
p84
S"(environ={'APPL_MD_PATH': '/LM/W3SVC/2/ROOT', 'APPL_PHYSICAL_PATH': r'C:\\Users\\unificace\\unificace\\web2py\\', 'APP_POOL_CONFIG': r'C:\\inetpub\\temp\\apppools\\unificace\\unificace.config', 'APP_POOL_ID': 'unificace', 'AUTH_PASSWORD': '', 'AUTH_TYPE': '', 'AUTH_USER': '', 'CERT_COOKIE': '', 'CERT_FLAGS': '', 'CERT_ISSUER': '', ...}, responder=<bound method handle_response.start of <__main__.handle_response object>>)"
p85
sS'func'
p86
S'wsgibase'
p87
sa(dp88
g61
S'C:\\Users\\unificace\\unificace\\web2py\\gluon\\restricted.py'
p89
sg63
(dp90
S'self.traceback'
p91
S'\'Traceback (most recent call last):\\n  File ".\\\\glu...ine 1838, in __init__\\n    host=host,\\nMemoryError\\n\''
p92
sS'global logger'
p93
S'<logging.Logger object>'
p94
sS'logger.error'
p95
S'<bound method Logger.error of <logging.Logger object>>'
p96
sS'self'
p97
S'RestrictedError()'
p98
ssg72
I174
sg73
(dp99
I169
S'            cmd_opts = global_settings.cmd_options'
p100
sI170
S'            if cmd_opts and cmd_opts.print_errors:'
p101
sI171
S'                logger.error(self.traceback)'
p102
sI172
S'            return request.uuid'
p103
sI173
S'        except:'
p104
sI174
S'            logger.error(self.traceback)'
p105
sI175
S'            return None'
p106
sI176
S''
sI177
S''
sI178
S'    def load(self, request, app, ticket_id):'
p107
ssg84
S"(self=RestrictedError(), request=<Storage {'_vars': None, 'function': 'index', 'c...icace\\\\unificace\\\\web2py\\\\applications\\\\init\\\\'}>)"
p108
sg86
S'log'
p109
sa(dp110
g61
S'c:\\python27\\lib\\logging\\__init__.py'
p111
sg63
(dp112
S'global ERROR'
p113
S'40'
p114
sS'self'
p115
S'<logging.Logger object>'
p116
sS'args'
p117
S'()'
p118
sS'kwargs'
p119
g17
sS'msg'
p120
S'\'Traceback (most recent call last):\\n  File ".\\\\glu...ine 1838, in __init__\\n    host=host,\\nMemoryError\\n\''
p121
sS'self._log'
p122
S'<bound method Logger._log of <logging.Logger object>>'
p123
ssg72
I1193
sg73
(dp124
I1188
S'        a true value, e.g.'
p125
sI1189
S''
sI1190
S'        logger.error("Houston, we have a %s", "major problem", exc_info=1)'
p126
sI1191
S'        """'
p127
sI1192
S'        if self.isEnabledFor(ERROR):'
p128
sI1193
S'            self._log(ERROR, msg, args, **kwargs)'
p129
sI1194
S''
sI1195
S'    def exception(self, msg, *args, **kwargs):'
p130
sI1196
S'        """'
p131
sI1197
S'        Convenience method for logging an ERROR with exception information.'
p132
ssg84
S'(self=<logging.Logger object>, msg=\'Traceback (most recent call last):\\n  File ".\\\\glu...ine 1838, in __init__\\n    host=host,\\nMemoryError\\n\', *args=(), **kwargs={})'
p133
sg86
S'error'
p134
sa(dp135
g61
S'c:\\python27\\lib\\logging\\__init__.py'
p136
sg63
(dp137
S'extra'
p138
S'None'
p139
sS'self.name'
p140
S"'web2py'"
p141
sS'level'
p142
S'40'
p143
sS'self'
p144
S'<logging.Logger object>'
p145
sS'args'
p146
S'()'
p147
sS'self.makeRecord'
p148
S'<bound method Logger.makeRecord of <logging.Logger object>>'
p149
sS'record'
p150
g68
sS'lno'
p151
S'174'
p152
sS'func'
p153
S"'log'"
p154
sS'msg'
p155
S'\'Traceback (most recent call last):\\n  File ".\\\\glu...ine 1838, in __init__\\n    host=host,\\nMemoryError\\n\''
p156
sS'exc_info'
p157
S'None'
p158
sS'fn'
p159
S"r'.\\gluon\\restricted.py'"
p160
ssg72
I1285
sg73
(dp161
I1280
S'        else:'
p162
sI1281
S'            fn, lno, func = "(unknown file)", 0, "(unknown function)"'
p163
sI1282
S'        if exc_info:'
p164
sI1283
S'            if not isinstance(exc_info, tuple):'
p165
sI1284
S'                exc_info = sys.exc_info()'
p166
sI1285
S'        record = self.makeRecord(self.name, level, fn, lno, msg, args, exc_info, func, extra)'
p167
sI1286
S'        self.handle(record)'
p168
sI1287
S''
sI1288
S'    def handle(self, record):'
p169
sI1289
S'        """'
p170
ssg84
S'(self=<logging.Logger object>, level=40, msg=\'Traceback (most recent call last):\\n  File ".\\\\glu...ine 1838, in __init__\\n    host=host,\\nMemoryError\\n\', args=(), exc_info=None, extra=None)'
p171
sg86
S'_log'
p172
sa(dp173
g61
S'c:\\python27\\lib\\logging\\__init__.py'
p174
sg63
(dp175
S'rv'
p176
g68
sS'name'
p177
S"'web2py'"
p178
sS'level'
p179
S'40'
p180
sS'args'
p181
S'()'
p182
sS'global LogRecord'
p183
S"<class 'logging.LogRecord'>"
p184
sS'lno'
p185
S'174'
p186
sS'func'
p187
S"'log'"
p188
sS'msg'
p189
S'\'Traceback (most recent call last):\\n  File ".\\\\glu...ine 1838, in __init__\\n    host=host,\\nMemoryError\\n\''
p190
sS'exc_info'
p191
S'None'
p192
sS'fn'
p193
S"r'.\\gluon\\restricted.py'"
p194
ssg72
I1259
sg73
(dp195
I1254
S'    def makeRecord(self, name, level, fn, lno, msg, args, exc_info, func=None, extra=None):'
p196
sI1255
S'        """'
p197
sI1256
S'        A factory method which can be overridden in subclasses to create'
p198
sI1257
S'        specialized LogRecords.'
p199
sI1258
S'        """'
p200
sI1259
S'        rv = LogRecord(name, level, fn, lno, msg, args, exc_info, func)'
p201
sI1260
S'        if extra is not None:'
p202
sI1261
S'            for key in extra:'
p203
sI1262
S'                if (key in ["message", "asctime"]) or (key in rv.__dict__):'
p204
sI1263
S'                    raise KeyError("Attempt to overwrite %r in LogRecord" % key)'
p205
ssg84
S'(self=<logging.Logger object>, name=\'web2py\', level=40, fn=r\'.\\gluon\\restricted.py\', lno=174, msg=\'Traceback (most recent call last):\\n  File ".\\\\glu...ine 1838, in __init__\\n    host=host,\\nMemoryError\\n\', args=(), exc_info=None, func=\'log\', extra=None)'
p206
sg86
S'makeRecord'
p207
sa(dp208
g61
S'c:\\python27\\lib\\logging\\__init__.py'
p209
sg63
(dp210
S'self'
p211
S'<logging.LogRecord object>'
p212
sS'pathname'
p213
S"r'.\\gluon\\restricted.py'"
p214
sS'self.pathname'
p215
S"r'.\\gluon\\restricted.py'"
p216
ssg72
I269
sg73
(dp217
I264
S'            and args[0]):'
p218
sI265
S'            args = args[0]'
p219
sI266
S'        self.args = args'
p220
sI267
S'        self.levelname = getLevelName(level)'
p221
sI268
S'        self.levelno = level'
p222
sI269
S'        self.pathname = pathname'
p223
sI270
S'        try:'
p224
sI271
S'            self.filename = os.path.basename(pathname)'
p225
sI272
S'            self.module = os.path.splitext(self.filename)[0]'
p226
sI273
S'        except (TypeError, ValueError, AttributeError):'
p227
ssg84
S'(self=<logging.LogRecord object>, name=\'web2py\', level=40, pathname=r\'.\\gluon\\restricted.py\', lineno=174, msg=\'Traceback (most recent call last):\\n  File ".\\\\glu...ine 1838, in __init__\\n    host=host,\\nMemoryError\\n\', args=(), exc_info=None, func=\'log\')'
p228
sg86
g22
sasS'pyver'
p229
S'Python 2.7.13: c:\\python27\\python.exe (prefix: c:\\python27)'
p230
sS'session'
p231
g56
(S's\x1a\x00\x00\x00<div><table></table></div>'
tRp232
sS'etype'
p233
S"<type 'exceptions.MemoryError'>"
p234
sS'date'
p235
S'Sat Sep 03 03:30:40 2022'
p236
sS'response'
p237
g56
(S's!\x16\x00\x00<div><table><tr><td style="font-weight:bold;vertical-align:top;">body</td><td style="vertical-align:top;">:</td><td><div>&lt;cStringIO.StringO object at 0x0000000002DE54C8&gt;</div></td></tr><tr><td style="font-weight:bold;vertical-align:top;">cookies</td><td style="vertical-align:top;">:</td><td><div><table><tr><td style="font-weight:bold;vertical-align:top;">session_id_init</td><td style="vertical-align:top;">:</td><td><div>10.129.64.51-9efbad9d-31f5-422f-adc2-6772fac9f244<table><tr><td style="font-weight:bold;vertical-align:top;">comment</td><td style="vertical-align:top;">:</td><td><div></div></td></tr><tr><td style="font-weight:bold;vertical-align:top;">domain</td><td style="vertical-align:top;">:</td><td><div></div></td></tr><tr><td style="font-weight:bold;vertical-align:top;">expires</td><td style="vertical-align:top;">:</td><td><div></div></td></tr><tr><td style="font-weight:bold;vertical-align:top;">httponly</td><td style="vertical-align:top;">:</td><td><div></div></td></tr><tr><td style="font-weight:bold;vertical-align:top;">max-age</td><td style="vertical-align:top;">:</td><td><div></div></td></tr><tr><td style="font-weight:bold;vertical-align:top;">path</td><td style="vertical-align:top;">:</td><td><div>/</div></td></tr><tr><td style="font-weight:bold;vertical-align:top;">secure</td><td style="vertical-align:top;">:</td><td><div></div></td></tr><tr><td style="font-weight:bold;vertical-align:top;">version</td><td style="vertical-align:top;">:</td><td><div></div></td></tr></table></div></td></tr></table></div></td></tr><tr><td style="font-weight:bold;vertical-align:top;">delimiters</td><td style="vertical-align:top;">:</td><td><div><table><tr><td><div>{{</div></td></tr><tr><td><div>}}</div></td></tr></table></div></td></tr><tr><td style="font-weight:bold;vertical-align:top;">files</td><td style="vertical-align:top;">:</td><td><div><table></table></div></td></tr><tr><td style="font-weight:bold;vertical-align:top;">flash</td><td style="vertical-align:top;">:</td><td><div></div></td></tr><tr><td style="font-weight:bold;vertical-align:top;">form_label_separator</td><td style="vertical-align:top;">:</td><td><div></div></td></tr><tr><td style="font-weight:bold;vertical-align:top;">formstyle</td><td style="vertical-align:top;">:</td><td><div>bootstrap3_inline</div></td></tr><tr><td style="font-weight:bold;vertical-align:top;">generic_patterns</td><td style="vertical-align:top;">:</td><td><div><table></table></div></td></tr><tr><td style="font-weight:bold;vertical-align:top;">headers</td><td style="vertical-align:top;">:</td><td><div><table><tr><td style="font-weight:bold;vertical-align:top;">X-Powered-By</td><td style="vertical-align:top;">:</td><td><div>web2py</div></td></tr></table></div></td></tr><tr><td style="font-weight:bold;vertical-align:top;">menu</td><td style="vertical-align:top;">:</td><td><div><table></table></div></td></tr><tr><td style="font-weight:bold;vertical-align:top;">meta</td><td style="vertical-align:top;">:</td><td><div><table></table></div></td></tr><tr><td style="font-weight:bold;vertical-align:top;">models_to_run</td><td style="vertical-align:top;">:</td><td><div><table><tr><td><div>^\\w+\\.py$</div></td></tr><tr><td><div>^default/\\w+\\.py$</div></td></tr><tr><td><div>^default/index/\\w+\\.py$</div></td></tr></table></div></td></tr><tr><td style="font-weight:bold;vertical-align:top;">postprocessing</td><td style="vertical-align:top;">:</td><td><div><table></table></div></td></tr><tr><td style="font-weight:bold;vertical-align:top;">session_client</td><td style="vertical-align:top;">:</td><td><div>10.129.64.51</div></td></tr><tr><td style="font-weight:bold;vertical-align:top;">session_cookie_compression_level</td><td style="vertical-align:top;">:</td><td><div>None</div></td></tr><tr><td style="font-weight:bold;vertical-align:top;">session_cookie_expires</td><td style="vertical-align:top;">:</td><td><div>None</div></td></tr><tr><td style="font-weight:bold;vertical-align:top;">session_data_name</td><td style="vertical-align:top;">:</td><td><div>session_data_init</div></td></tr><tr><td style="font-weight:bold;vertical-align:top;">session_file</td><td style="vertical-align:top;">:</td><td><div>None</div></td></tr><tr><td style="font-weight:bold;vertical-align:top;">session_filename</td><td style="vertical-align:top;">:</td><td><div>C:\\Users\\unificace\\unificace\\web2py\\applications\\init\\sessions\\10.129.64.51-9efbad9d-31f5-422f-adc2-6772fac9f244</div></td></tr><tr><td style="font-weight:bold;vertical-align:top;">session_hash</td><td style="vertical-align:top;">:</td><td><div>c0762cbf4baf7f9af97c051e7fcb8083</div></td></tr><tr><td style="font-weight:bold;vertical-align:top;">session_id</td><td style="vertical-align:top;">:</td><td><div>10.129.64.51-9efbad9d-31f5-422f-adc2-6772fac9f244</div></td></tr><tr><td style="font-weight:bold;vertical-align:top;">session_id_name</td><td style="vertical-align:top;">:</td><td><div>session_id_init</div></td></tr><tr><td style="font-weight:bold;vertical-align:top;">session_masterapp</td><td style="vertical-align:top;">:</td><td><div>init</div></td></tr><tr><td style="font-weight:bold;vertical-align:top;">session_new</td><td style="vertical-align:top;">:</td><td><div>True</div></td></tr><tr><td style="font-weight:bold;vertical-align:top;">session_storage_type</td><td style="vertical-align:top;">:</td><td><div>file</div></td></tr><tr><td style="font-weight:bold;vertical-align:top;">status</td><td style="vertical-align:top;">:</td><td><div>200</div></td></tr><tr><td style="font-weight:bold;vertical-align:top;">view</td><td style="vertical-align:top;">:</td><td><div>default/index.html</div></td></tr></table></div>'
tRp238
sS'locals'
p239
(dp240
S'name'
p241
S"'web2py'"
p242
sS'level'
p243
S'40'
p244
sS'self'
p245
S'<logging.LogRecord object>'
p246
sg42
S'()'
p247
sS'pathname'
p248
S"r'.\\gluon\\restricted.py'"
p249
sS'lineno'
p250
S'174'
p251
sg86
S"'log'"
p252
sS'msg'
p253
S'\'Traceback (most recent call last):\\n  File ".\\\\glu...ine 1838, in __init__\\n    host=host,\\nMemoryError\\n\''
p254
sS'exc_info'
p255
S'None'
p256
sS'ct'
p257
S'1662190240.104'
p258
sssS'traceback'
p259
S'Traceback (most recent call last):\n  File ".\\gluon\\main.py", line 514, in wsgibase\n    ticket = e.log(request) or \'unknown\'\n  File ".\\gluon\\restricted.py", line 174, in log\n    logger.error(self.traceback)\n  File "c:\\python27\\lib\\logging\\__init__.py", line 1193, in error\n  File "c:\\python27\\lib\\logging\\__init__.py", line 1285, in _log\n    record = self.makeRecord(self.name, level, fn, lno, msg, args, exc_info, func, extra)\n  File "c:\\python27\\lib\\logging\\__init__.py", line 1259, in makeRecord\n    rv = LogRecord(name, level, fn, lno, msg, args, exc_info, func)\n  File "c:\\python27\\lib\\logging\\__init__.py", line 269, in __init__\n    self.pathname = pathname\nMemoryError\n'
p260
s.