(dp1
S'output'
p2
S'<class \'gluon.contrib.pypyodbc.ProgrammingError\'> (u\'42S01\', u"[42S01] [Microsoft][ODBC SQL Server Driver][SQL Server]There is already an object named \'resource_group\' in the database.")'
p3
sS'layer'
p4
S'C:\\Users\\unificace\\unificace\\web2py\\applications\\init\\models\\db.py'
p5
sS'code'
p6
S'<code object <module> at 0000000002C76730, file "C:\\Users\\unificace\\unificace\\web2py\\applications\\init\\models\\db.py", line 14>'
p7
sS'snapshot'
p8
(dp9
S'exception'
p10
(dp11
S'__module__'
p12
S"'gluon.contrib.pypyodbc'"
p13
sS'__getslice__'
p14
S"<method-wrapper '__getslice__' of ProgrammingError object>"
p15
sS'__str__'
p16
S"<method-wrapper '__str__' of ProgrammingError object>"
p17
sS'__reduce__'
p18
S'<built-in method __reduce__ of ProgrammingError object>'
p19
sS'__dict__'
p20
S'{\'value\': (u\'42S01\', u"[42S01] [Microsoft][ODBC SQL Server Driver][SQ...n object named \'resource_group\' in the database.")}'
p21
sS'__sizeof__'
p22
S'<built-in method __sizeof__ of ProgrammingError object>'
p23
sS'__weakref__'
p24
S'None'
p25
sS'message'
p26
S"''"
p27
sS'__init__'
p28
S'<bound method ProgrammingError.__init__ of Progr...object named \'resource_group\' in the database.")>'
p29
sS'__setattr__'
p30
S"<method-wrapper '__setattr__' of ProgrammingError object>"
p31
sS'__reduce_ex__'
p32
S'<built-in method __reduce_ex__ of ProgrammingError object>'
p33
sS'__new__'
p34
S'<built-in method __new__ of type object>'
p35
sS'__format__'
p36
S'<built-in method __format__ of ProgrammingError object>'
p37
sS'__class__'
p38
S"<class 'gluon.contrib.pypyodbc.ProgrammingError'>"
p39
sS'__doc__'
p40
S'None'
p41
sS'__getitem__'
p42
S"<method-wrapper '__getitem__' of ProgrammingError object>"
p43
sS'__setstate__'
p44
S'<built-in method __setstate__ of ProgrammingError object>'
p45
sS'__getattribute__'
p46
S"<method-wrapper '__getattribute__' of ProgrammingError object>"
p47
sS'args'
p48
S'(u\'42S01\', u"[42S01] [Microsoft][ODBC SQL Server Driver][SQ...n object named \'resource_group\' in the database.")'
p49
sS'__subclasshook__'
p50
S'<built-in method __subclasshook__ of type object>'
p51
sS'__unicode__'
p52
S'<built-in method __unicode__ of ProgrammingError object>'
p53
sS'value'
p54
S'(u\'42S01\', u"[42S01] [Microsoft][ODBC SQL Server Driver][SQ...n object named \'resource_group\' in the database.")'
p55
sS'__delattr__'
p56
S"<method-wrapper '__delattr__' of ProgrammingError object>"
p57
sS'__repr__'
p58
S"<method-wrapper '__repr__' of ProgrammingError object>"
p59
sS'__hash__'
p60
S"<method-wrapper '__hash__' of ProgrammingError object>"
p61
ssS'evalue'
p62
S'(u\'42S01\', u"[42S01] [Microsoft][ODBC SQL Server Driver][SQL Server]There is already an object named \'resource_group\' in the database.")'
p63
sS'request'
p64
cgluon.html
XML_unpickle
p65
(S's\x05d\x00\x00<div><table><tr><td style="font-weight:bold;vertical-align:top;">ajax</td><td style="vertical-align:top;">:</td><td><div>False</div></td></tr><tr><td style="font-weight:bold;vertical-align:top;">application</td><td style="vertical-align:top;">:</td><td><div>init</div></td></tr><tr><td style="font-weight:bold;vertical-align:top;">args</td><td style="vertical-align:top;">:</td><td><div><table></table></div></td></tr><tr><td style="font-weight:bold;vertical-align:top;">cid</td><td style="vertical-align:top;">:</td><td><div>None</div></td></tr><tr><td style="font-weight:bold;vertical-align:top;">client</td><td style="vertical-align:top;">:</td><td><div>10.129.64.51</div></td></tr><tr><td style="font-weight:bold;vertical-align:top;">controller</td><td style="vertical-align:top;">:</td><td><div>default</div></td></tr><tr><td style="font-weight:bold;vertical-align:top;">cookies</td><td style="vertical-align:top;">:</td><td><div><table></table></div></td></tr><tr><td style="font-weight:bold;vertical-align:top;">env</td><td style="vertical-align:top;">:</td><td><div><table><tr><td style="font-weight:bold;vertical-align:top;">APPL_MD_PATH</td><td style="vertical-align:top;">:</td><td><div>/LM/W3SVC/2/ROOT</div></td></tr><tr><td style="font-weight:bold;vertical-align:top;">APPL_PHYSICAL_PATH</td><td style="vertical-align:top;">:</td><td><div>C:\\Users\\unificace\\unificace\\web2py\\</div></td></tr><tr><td style="font-weight:bold;vertical-align:top;">APP_POOL_CONFIG</td><td style="vertical-align:top;">:</td><td><div>C:\\inetpub\\temp\\apppools\\unificace\\unificace.config</div></td></tr><tr><td style="font-weight:bold;vertical-align:top;">APP_POOL_ID</td><td style="vertical-align:top;">:</td><td><div>unificace</div></td></tr><tr><td style="font-weight:bold;vertical-align:top;">AUTH_PASSWORD</td><td style="vertical-align:top;">:</td><td><div></div></td></tr><tr><td style="font-weight:bold;vertical-align:top;">AUTH_TYPE</td><td style="vertical-align:top;">:</td><td><div></div></td></tr><tr><td style="font-weight:bold;vertical-align:top;">AUTH_USER</td><td style="vertical-align:top;">:</td><td><div></div></td></tr><tr><td style="font-weight:bold;vertical-align:top;">CERT_COOKIE</td><td style="vertical-align:top;">:</td><td><div></div></td></tr><tr><td style="font-weight:bold;vertical-align:top;">CERT_FLAGS</td><td style="vertical-align:top;">:</td><td><div></div></td></tr><tr><td style="font-weight:bold;vertical-align:top;">CERT_ISSUER</td><td style="vertical-align:top;">:</td><td><div></div></td></tr><tr><td style="font-weight:bold;vertical-align:top;">CERT_SERIALNUMBER</td><td style="vertical-align:top;">:</td><td><div></div></td></tr><tr><td style="font-weight:bold;vertical-align:top;">CERT_SUBJECT</td><td style="vertical-align:top;">:</td><td><div></div></td></tr><tr><td style="font-weight:bold;vertical-align:top;">CONTENT_LENGTH</td><td style="vertical-align:top;">:</td><td><div>0</div></td></tr><tr><td style="font-weight:bold;vertical-align:top;">CONTENT_TYPE</td><td style="vertical-align:top;">:</td><td><div></div></td></tr><tr><td style="font-weight:bold;vertical-align:top;">DOCUMENT_ROOT</td><td style="vertical-align:top;">:</td><td><div>C:\\Users\\unificace\\unificace\\web2py</div></td></tr><tr><td style="font-weight:bold;vertical-align:top;">GATEWAY_INTERFACE</td><td style="vertical-align:top;">:</td><td><div>CGI/1.1</div></td></tr><tr><td style="font-weight:bold;vertical-align:top;">HTTPS</td><td style="vertical-align:top;">:</td><td><div>on</div></td></tr><tr><td style="font-weight:bold;vertical-align:top;">HTTPS_KEYSIZE</td><td style="vertical-align:top;">:</td><td><div>256</div></td></tr><tr><td style="font-weight:bold;vertical-align:top;">HTTPS_SECRETKEYSIZE</td><td style="vertical-align:top;">:</td><td><div>2048</div></td></tr><tr><td style="font-weight:bold;vertical-align:top;">HTTPS_SERVER_ISSUER</td><td style="vertical-align:top;">:</td><td><div>C=US, O=&quot;Entrust, Inc.&quot;, OU=See www.entrust.net/legal-terms, OU=&quot;(c) 2012 Entrust, Inc. - for authorized use only&quot;, CN=Entrust Certification Authority - L1K</div></td></tr><tr><td style="font-weight:bold;vertical-align:top;">HTTPS_SERVER_SUBJECT</td><td style="vertical-align:top;">:</td><td><div>C=CA, S=Quebec, L=Quebec, O=Minist\xe8re de la sant\xe9 et des services sociaux du Qu\xe9bec, CN=*.cemtl.rtss.qc.ca</div></td></tr><tr><td style="font-weight:bold;vertical-align:top;">HTTP_CONNECTION</td><td style="vertical-align:top;">:</td><td><div>Close</div></td></tr><tr><td style="font-weight:bold;vertical-align:top;">HTTP_CONTENT_LENGTH</td><td style="vertical-align:top;">:</td><td><div>0</div></td></tr><tr><td style="font-weight:bold;vertical-align:top;">HTTP_HOST</td><td style="vertical-align:top;">:</td><td><div>10.129.65.41:443</div></td></tr><tr><td style="font-weight:bold;vertical-align:top;">HTTP_X_ORIGINAL_URL</td><td style="vertical-align:top;">:</td><td><div>/</div></td></tr><tr><td style="font-weight:bold;vertical-align:top;">IIS_UrlRewriteModule</td><td style="vertical-align:top;">:</td><td><div>7.1.1980.0</div></td></tr><tr><td style="font-weight:bold;vertical-align:top;">IIS_WasUrlRewritten</td><td style="vertical-align:top;">:</td><td><div>1</div></td></tr><tr><td style="font-weight:bold;vertical-align:top;">INSTANCE_ID</td><td style="vertical-align:top;">:</td><td><div>2</div></td></tr><tr><td style="font-weight:bold;vertical-align:top;">INSTANCE_META_PATH</td><td style="vertical-align:top;">:</td><td><div>/LM/W3SVC/2</div></td></tr><tr><td style="font-weight:bold;vertical-align:top;">INSTANCE_NAME</td><td style="vertical-align:top;">:</td><td><div>UNIFICACE</div></td></tr><tr><td style="font-weight:bold;vertical-align:top;">LOCAL_ADDR</td><td style="vertical-align:top;">:</td><td><div>10.129.65.41</div></td></tr><tr><td style="font-weight:bold;vertical-align:top;">LOGON_USER</td><td style="vertical-align:top;">:</td><td><div></div></td></tr><tr><td style="font-weight:bold;vertical-align:top;">PATH_INFO</td><td style="vertical-align:top;">:</td><td><div>/</div></td></tr><tr><td style="font-weight:bold;vertical-align:top;">PATH_TRANSLATED</td><td style="vertical-align:top;">:</td><td><div>C:\\Users\\unificace\\unificace\\web2py\\handler.web2py\\</div></td></tr><tr><td style="font-weight:bold;vertical-align:top;">QUERY_STRING</td><td style="vertical-align:top;">:</td><td><div></div></td></tr><tr><td style="font-weight:bold;vertical-align:top;">REMOTE_ADDR</td><td style="vertical-align:top;">:</td><td><div>10.129.64.51</div></td></tr><tr><td style="font-weight:bold;vertical-align:top;">REMOTE_HOST</td><td style="vertical-align:top;">:</td><td><div>10.129.64.51</div></td></tr><tr><td style="font-weight:bold;vertical-align:top;">REMOTE_PORT</td><td style="vertical-align:top;">:</td><td><div>35822</div></td></tr><tr><td style="font-weight:bold;vertical-align:top;">REMOTE_USER</td><td style="vertical-align:top;">:</td><td><div></div></td></tr><tr><td style="font-weight:bold;vertical-align:top;">REQUEST_METHOD</td><td style="vertical-align:top;">:</td><td><div>HEAD</div></td></tr><tr><td style="font-weight:bold;vertical-align:top;">REQUEST_URI</td><td style="vertical-align:top;">:</td><td><div>/</div></td></tr><tr><td style="font-weight:bold;vertical-align:top;">SCRIPT_FILENAME</td><td style="vertical-align:top;">:</td><td><div>C:\\Users\\unificace\\unificace\\web2py\\handler.web2py</div></td></tr><tr><td style="font-weight:bold;vertical-align:top;">SCRIPT_NAME</td><td style="vertical-align:top;">:</td><td><div></div></td></tr><tr><td style="font-weight:bold;vertical-align:top;">SERVER_NAME</td><td style="vertical-align:top;">:</td><td><div>10.129.65.41</div></td></tr><tr><td style="font-weight:bold;vertical-align:top;">SERVER_PORT</td><td style="vertical-align:top;">:</td><td><div>443</div></td></tr><tr><td style="font-weight:bold;vertical-align:top;">SERVER_PORT_SECURE</td><td style="vertical-align:top;">:</td><td><div>1</div></td></tr><tr><td style="font-weight:bold;vertical-align:top;">SERVER_PROTOCOL</td><td style="vertical-align:top;">:</td><td><div>HTTP/1.1</div></td></tr><tr><td style="font-weight:bold;vertical-align:top;">SERVER_SOFTWARE</td><td style="vertical-align:top;">:</td><td><div>Microsoft-IIS/8.5</div></td></tr><tr><td style="font-weight:bold;vertical-align:top;">UNENCODED_URL</td><td style="vertical-align:top;">:</td><td><div>/</div></td></tr><tr><td style="font-weight:bold;vertical-align:top;">URL</td><td style="vertical-align:top;">:</td><td><div>/handler.web2py</div></td></tr><tr><td style="font-weight:bold;vertical-align:top;">app_folders</td><td style="vertical-align:top;">:</td><td><div>set([&#x27;C:\\\\Users\\\\unificace\\\\unificace\\\\web2py\\\\applications\\\\init\\\\&#x27;])</div></td></tr><tr><td style="font-weight:bold;vertical-align:top;">app_pool_config</td><td style="vertical-align:top;">:</td><td><div>C:\\inetpub\\temp\\apppools\\unificace\\unificace.config</div></td></tr><tr><td style="font-weight:bold;vertical-align:top;">app_pool_id</td><td style="vertical-align:top;">:</td><td><div>unificace</div></td></tr><tr><td style="font-weight:bold;vertical-align:top;">appl_md_path</td><td style="vertical-align:top;">:</td><td><div>/LM/W3SVC/2/ROOT</div></td></tr><tr><td style="font-weight:bold;vertical-align:top;">appl_physical_path</td><td style="vertical-align:top;">:</td><td><div>C:\\Users\\unificace\\unificace\\web2py\\</div></td></tr><tr><td style="font-weight:bold;vertical-align:top;">applications_parent</td><td style="vertical-align:top;">:</td><td><div>C:\\Users\\unificace\\unificace\\web2py</div></td></tr><tr><td style="font-weight:bold;vertical-align:top;">auth_password</td><td style="vertical-align:top;">:</td><td><div></div></td></tr><tr><td style="font-weight:bold;vertical-align:top;">auth_type</td><td style="vertical-align:top;">:</td><td><div></div></td></tr><tr><td style="font-weight:bold;vertical-align:top;">auth_user</td><td style="vertical-align:top;">:</td><td><div></div></td></tr><tr><td style="font-weight:bold;vertical-align:top;">cert_cookie</td><td style="vertical-align:top;">:</td><td><div></div></td></tr><tr><td style="font-weight:bold;vertical-align:top;">cert_flags</td><td style="vertical-align:top;">:</td><td><div></div></td></tr><tr><td style="font-weight:bold;vertical-align:top;">cert_issuer</td><td style="vertical-align:top;">:</td><td><div></div></td></tr><tr><td style="font-weight:bold;vertical-align:top;">cert_serialnumber</td><td style="vertical-align:top;">:</td><td><div></div></td></tr><tr><td style="font-weight:bold;vertical-align:top;">cert_subject</td><td style="vertical-align:top;">:</td><td><div></div></td></tr><tr><td style="font-weight:bold;vertical-align:top;">content_length</td><td style="vertical-align:top;">:</td><td><div>0</div></td></tr><tr><td style="font-weight:bold;vertical-align:top;">content_type</td><td style="vertical-align:top;">:</td><td><div></div></td></tr><tr><td style="font-weight:bold;vertical-align:top;">db_sessions</td><td style="vertical-align:top;">:</td><td><div>set([])</div></td></tr><tr><td style="font-weight:bold;vertical-align:top;">debugging</td><td style="vertical-align:top;">:</td><td><div>False</div></td></tr><tr><td style="font-weight:bold;vertical-align:top;">document_root</td><td style="vertical-align:top;">:</td><td><div>C:\\Users\\unificace\\unificace\\web2py</div></td></tr><tr><td style="font-weight:bold;vertical-align:top;">gateway_interface</td><td style="vertical-align:top;">:</td><td><div>CGI/1.1</div></td></tr><tr><td style="font-weight:bold;vertical-align:top;">gluon_parent</td><td style="vertical-align:top;">:</td><td><div>C:\\Users\\unificace\\unificace\\web2py</div></td></tr><tr><td style="font-weight:bold;vertical-align:top;">http_connection</td><td style="vertical-align:top;">:</td><td><div>Close</div></td></tr><tr><td style="font-weight:bold;vertical-align:top;">http_content_length</td><td style="vertical-align:top;">:</td><td><div>0</div></td></tr><tr><td style="font-weight:bold;vertical-align:top;">http_host</td><td style="vertical-align:top;">:</td><td><div>10.129.65.41:443</div></td></tr><tr><td style="font-weight:bold;vertical-align:top;">http_x_original_url</td><td style="vertical-align:top;">:</td><td><div>/</div></td></tr><tr><td style="font-weight:bold;vertical-align:top;">https</td><td style="vertical-align:top;">:</td><td><div>on</div></td></tr><tr><td style="font-weight:bold;vertical-align:top;">https_keysize</td><td style="vertical-align:top;">:</td><td><div>256</div></td></tr><tr><td style="font-weight:bold;vertical-align:top;">https_secretkeysize</td><td style="vertical-align:top;">:</td><td><div>2048</div></td></tr><tr><td style="font-weight:bold;vertical-align:top;">https_server_issuer</td><td style="vertical-align:top;">:</td><td><div>C=US, O=&quot;Entrust, Inc.&quot;, OU=See www.entrust.net/legal-terms, OU=&quot;(c) 2012 Entrust, Inc. - for authorized use only&quot;, CN=Entrust Certification Authority - L1K</div></td></tr><tr><td style="font-weight:bold;vertical-align:top;">https_server_subject</td><td style="vertical-align:top;">:</td><td><div>C=CA, S=Quebec, L=Quebec, O=Minist\xe8re de la sant\xe9 et des services sociaux du Qu\xe9bec, CN=*.cemtl.rtss.qc.ca</div></td></tr><tr><td style="font-weight:bold;vertical-align:top;">iis_urlrewritemodule</td><td style="vertical-align:top;">:</td><td><div>7.1.1980.0</div></td></tr><tr><td style="font-weight:bold;vertical-align:top;">iis_wasurlrewritten</td><td style="vertical-align:top;">:</td><td><div>1</div></td></tr><tr><td style="font-weight:bold;vertical-align:top;">instance_id</td><td style="vertical-align:top;">:</td><td><div>2</div></td></tr><tr><td style="font-weight:bold;vertical-align:top;">instance_meta_path</td><td style="vertical-align:top;">:</td><td><div>/LM/W3SVC/2</div></td></tr><tr><td style="font-weight:bold;vertical-align:top;">instance_name</td><td style="vertical-align:top;">:</td><td><div>UNIFICACE</div></td></tr><tr><td style="font-weight:bold;vertical-align:top;">is_jython</td><td style="vertical-align:top;">:</td><td><div>False</div></td></tr><tr><td style="font-weight:bold;vertical-align:top;">is_py2</td><td style="vertical-align:top;">:</td><td><div>True</div></td></tr><tr><td style="font-weight:bold;vertical-align:top;">is_pypy</td><td style="vertical-align:top;">:</td><td><div>False</div></td></tr><tr><td style="font-weight:bold;vertical-align:top;">is_source</td><td style="vertical-align:top;">:</td><td><div>True</div></td></tr><tr><td style="font-weight:bold;vertical-align:top;">local_addr</td><td style="vertical-align:top;">:</td><td><div>10.129.65.41</div></td></tr><tr><td style="font-weight:bold;vertical-align:top;">local_hosts</td><td style="vertical-align:top;">:</td><td><div><table><tr><td><div>S03VWPR00031</div></td></tr><tr><td><div>::ffff:127.0.0.1</div></td></tr><tr><td><div>::1</div></td></tr><tr><td><div>10.129.65.41</div></td></tr><tr><td><div>S03VWPR00031.cemtl.rtss.qc.ca</div></td></tr><tr><td><div>127.0.0.1</div></td></tr></table></div></td></tr><tr><td style="font-weight:bold;vertical-align:top;">logon_user</td><td style="vertical-align:top;">:</td><td><div></div></td></tr><tr><td style="font-weight:bold;vertical-align:top;">path_info</td><td style="vertical-align:top;">:</td><td><div>/</div></td></tr><tr><td style="font-weight:bold;vertical-align:top;">path_translated</td><td style="vertical-align:top;">:</td><td><div>C:\\Users\\unificace\\unificace\\web2py\\handler.web2py\\</div></td></tr><tr><td style="font-weight:bold;vertical-align:top;">query_string</td><td style="vertical-align:top;">:</td><td><div></div></td></tr><tr><td style="font-weight:bold;vertical-align:top;">remote_addr</td><td style="vertical-align:top;">:</td><td><div>10.129.64.51</div></td></tr><tr><td style="font-weight:bold;vertical-align:top;">remote_host</td><td style="vertical-align:top;">:</td><td><div>10.129.64.51</div></td></tr><tr><td style="font-weight:bold;vertical-align:top;">remote_port</td><td style="vertical-align:top;">:</td><td><div>35822</div></td></tr><tr><td style="font-weight:bold;vertical-align:top;">remote_user</td><td style="vertical-align:top;">:</td><td><div></div></td></tr><tr><td style="font-weight:bold;vertical-align:top;">request_method</td><td style="vertical-align:top;">:</td><td><div>HEAD</div></td></tr><tr><td style="font-weight:bold;vertical-align:top;">request_uri</td><td style="vertical-align:top;">:</td><td><div>/</div></td></tr><tr><td style="font-weight:bold;vertical-align:top;">script_filename</td><td style="vertical-align:top;">:</td><td><div>C:\\Users\\unificace\\unificace\\web2py\\handler.web2py</div></td></tr><tr><td style="font-weight:bold;vertical-align:top;">script_name</td><td style="vertical-align:top;">:</td><td><div></div></td></tr><tr><td style="font-weight:bold;vertical-align:top;">server_name</td><td style="vertical-align:top;">:</td><td><div>10.129.65.41</div></td></tr><tr><td style="font-weight:bold;vertical-align:top;">server_port</td><td style="vertical-align:top;">:</td><td><div>443</div></td></tr><tr><td style="font-weight:bold;vertical-align:top;">server_port_secure</td><td style="vertical-align:top;">:</td><td><div>1</div></td></tr><tr><td style="font-weight:bold;vertical-align:top;">server_protocol</td><td style="vertical-align:top;">:</td><td><div>HTTP/1.1</div></td></tr><tr><td style="font-weight:bold;vertical-align:top;">server_software</td><td style="vertical-align:top;">:</td><td><div>Microsoft-IIS/8.5</div></td></tr><tr><td style="font-weight:bold;vertical-align:top;">unencoded_url</td><td style="vertical-align:top;">:</td><td><div>/</div></td></tr><tr><td style="font-weight:bold;vertical-align:top;">url</td><td style="vertical-align:top;">:</td><td><div>/handler.web2py</div></td></tr><tr><td style="font-weight:bold;vertical-align:top;">web2py_path</td><td style="vertical-align:top;">:</td><td><div>C:\\Users\\unificace\\unificace\\web2py</div></td></tr><tr><td style="font-weight:bold;vertical-align:top;">web2py_version</td><td style="vertical-align:top;">:</td><td><div>2.16.1-stable+timestamp.2017.11.14.05.54.25</div></td></tr><tr><td style="font-weight:bold;vertical-align:top;">wfastcgi.http_x_original_url</td><td style="vertical-align:top;">:</td><td><div>/</div></td></tr><tr><td style="font-weight:bold;vertical-align:top;">wfastcgi_http_x_original_url</td><td style="vertical-align:top;">:</td><td><div>/</div></td></tr><tr><td style="font-weight:bold;vertical-align:top;">wsgi.errors</td><td style="vertical-align:top;">:</td><td><div>&lt;cStringIO.StringO object at 0x0000000006E91570&gt;</div></td></tr><tr><td style="font-weight:bold;vertical-align:top;">wsgi.input</td><td style="vertical-align:top;">:</td><td><div>&lt;cStringIO.StringI object at 0x0000000002F4C828&gt;</div></td></tr><tr><td style="font-weight:bold;vertical-align:top;">wsgi.multiprocess</td><td style="vertical-align:top;">:</td><td><div>True</div></td></tr><tr><td style="font-weight:bold;vertical-align:top;">wsgi.multithread</td><td style="vertical-align:top;">:</td><td><div>False</div></td></tr><tr><td style="font-weight:bold;vertical-align:top;">wsgi.path_info</td><td style="vertical-align:top;">:</td><td><div>/</div></td></tr><tr><td style="font-weight:bold;vertical-align:top;">wsgi.query_string</td><td style="vertical-align:top;">:</td><td><div></div></td></tr><tr><td style="font-weight:bold;vertical-align:top;">wsgi.run_once</td><td style="vertical-align:top;">:</td><td><div>False</div></td></tr><tr><td style="font-weight:bold;vertical-align:top;">wsgi.script_name</td><td style="vertical-align:top;">:</td><td><div></div></td></tr><tr><td style="font-weight:bold;vertical-align:top;">wsgi.url_scheme</td><td style="vertical-align:top;">:</td><td><div>https</div></td></tr><tr><td style="font-weight:bold;vertical-align:top;">wsgi.version</td><td style="vertical-align:top;">:</td><td><div><table><tr><td><div>1</div></td></tr><tr><td><div>0</div></td></tr></table></div></td></tr><tr><td style="font-weight:bold;vertical-align:top;">wsgi_errors</td><td style="vertical-align:top;">:</td><td><div>&lt;cStringIO.StringO object at 0x0000000006E91570&gt;</div></td></tr><tr><td style="font-weight:bold;vertical-align:top;">wsgi_input</td><td style="vertical-align:top;">:</td><td><div>&lt;cStringIO.StringI object at 0x0000000002F4C828&gt;</div></td></tr><tr><td style="font-weight:bold;vertical-align:top;">wsgi_multiprocess</td><td style="vertical-align:top;">:</td><td><div>True</div></td></tr><tr><td style="font-weight:bold;vertical-align:top;">wsgi_multithread</td><td style="vertical-align:top;">:</td><td><div>False</div></td></tr><tr><td style="font-weight:bold;vertical-align:top;">wsgi_path_info</td><td style="vertical-align:top;">:</td><td><div>/</div></td></tr><tr><td style="font-weight:bold;vertical-align:top;">wsgi_query_string</td><td style="vertical-align:top;">:</td><td><div></div></td></tr><tr><td style="font-weight:bold;vertical-align:top;">wsgi_run_once</td><td style="vertical-align:top;">:</td><td><div>False</div></td></tr><tr><td style="font-weight:bold;vertical-align:top;">wsgi_script_name</td><td style="vertical-align:top;">:</td><td><div></div></td></tr><tr><td style="font-weight:bold;vertical-align:top;">wsgi_url_scheme</td><td style="vertical-align:top;">:</td><td><div>https</div></td></tr><tr><td style="font-weight:bold;vertical-align:top;">wsgi_version</td><td style="vertical-align:top;">:</td><td><div><table><tr><td><div>1</div></td></tr><tr><td><div>0</div></td></tr></table></div></td></tr></table></div></td></tr><tr><td style="font-weight:bold;vertical-align:top;">extension</td><td style="vertical-align:top;">:</td><td><div>html</div></td></tr><tr><td style="font-weight:bold;vertical-align:top;">folder</td><td style="vertical-align:top;">:</td><td><div>C:\\Users\\unificace\\unificace\\web2py\\applications\\init\\</div></td></tr><tr><td style="font-weight:bold;vertical-align:top;">function</td><td style="vertical-align:top;">:</td><td><div>index</div></td></tr><tr><td style="font-weight:bold;vertical-align:top;">global_settings</td><td style="vertical-align:top;">:</td><td><div><table><tr><td style="font-weight:bold;vertical-align:top;">app_folders</td><td style="vertical-align:top;">:</td><td><div>set([&#x27;C:\\\\Users\\\\unificace\\\\unificace\\\\web2py\\\\applications\\\\init\\\\&#x27;])</div></td></tr><tr><td style="font-weight:bold;vertical-align:top;">applications_parent</td><td style="vertical-align:top;">:</td><td><div>C:\\Users\\unificace\\unificace\\web2py</div></td></tr><tr><td style="font-weight:bold;vertical-align:top;">db_sessions</td><td style="vertical-align:top;">:</td><td><div>set([])</div></td></tr><tr><td style="font-weight:bold;vertical-align:top;">debugging</td><td style="vertical-align:top;">:</td><td><div>False</div></td></tr><tr><td style="font-weight:bold;vertical-align:top;">gluon_parent</td><td style="vertical-align:top;">:</td><td><div>C:\\Users\\unificace\\unificace\\web2py</div></td></tr><tr><td style="font-weight:bold;vertical-align:top;">is_jython</td><td style="vertical-align:top;">:</td><td><div>False</div></td></tr><tr><td style="font-weight:bold;vertical-align:top;">is_py2</td><td style="vertical-align:top;">:</td><td><div>True</div></td></tr><tr><td style="font-weight:bold;vertical-align:top;">is_pypy</td><td style="vertical-align:top;">:</td><td><div>False</div></td></tr><tr><td style="font-weight:bold;vertical-align:top;">is_source</td><td style="vertical-align:top;">:</td><td><div>True</div></td></tr><tr><td style="font-weight:bold;vertical-align:top;">local_hosts</td><td style="vertical-align:top;">:</td><td><div><table><tr><td><div>S03VWPR00031</div></td></tr><tr><td><div>::ffff:127.0.0.1</div></td></tr><tr><td><div>::1</div></td></tr><tr><td><div>10.129.65.41</div></td></tr><tr><td><div>S03VWPR00031.cemtl.rtss.qc.ca</div></td></tr><tr><td><div>127.0.0.1</div></td></tr></table></div></td></tr><tr><td style="font-weight:bold;vertical-align:top;">web2py_version</td><td style="vertical-align:top;">:</td><td><div>2.16.1-stable+timestamp.2017.11.14.05.54.25</div></td></tr></table></div></td></tr><tr><td style="font-weight:bold;vertical-align:top;">is_https</td><td style="vertical-align:top;">:</td><td><div>True</div></td></tr><tr><td style="font-weight:bold;vertical-align:top;">is_local</td><td style="vertical-align:top;">:</td><td><div>False</div></td></tr><tr><td style="font-weight:bold;vertical-align:top;">is_restful</td><td style="vertical-align:top;">:</td><td><div>False</div></td></tr><tr><td style="font-weight:bold;vertical-align:top;">is_scheduler</td><td style="vertical-align:top;">:</td><td><div>False</div></td></tr><tr><td style="font-weight:bold;vertical-align:top;">is_shell</td><td style="vertical-align:top;">:</td><td><div>False</div></td></tr><tr><td style="font-weight:bold;vertical-align:top;">now</td><td style="vertical-align:top;">:</td><td><div>datetime.datetime(2023, 6, 18, 13, 42, 55, 5000)</div></td></tr><tr><td style="font-weight:bold;vertical-align:top;">raw_args</td><td style="vertical-align:top;">:</td><td><div></div></td></tr><tr><td style="font-weight:bold;vertical-align:top;">raw_extension</td><td style="vertical-align:top;">:</td><td><div>None</div></td></tr><tr><td style="font-weight:bold;vertical-align:top;">url</td><td style="vertical-align:top;">:</td><td><div>/</div></td></tr><tr><td style="font-weight:bold;vertical-align:top;">utcnow</td><td style="vertical-align:top;">:</td><td><div>datetime.datetime(2023, 6, 18, 17, 42, 55, 5000)</div></td></tr><tr><td style="font-weight:bold;vertical-align:top;">wsgi</td><td style="vertical-align:top;">:</td><td><div>&lt;gluon.main.LazyWSGI object at 0x0000000006E92780&gt;</div></td></tr></table></div>'
tRp66
sS'frames'
p67
(lp68
(dp69
S'file'
p70
S'C:\\Users\\unificace\\unificace\\web2py\\gluon\\restricted.py'
p71
sS'dump'
p72
(dp73
S'environment'
p74
S"{'A': <class 'gluon.html.A'>, 'ANY_OF': <class 'gluon.validators.ANY_OF'>, 'ASSIGNJS': <function ASSIGNJS>, 'AppConfig': <function AppConfig>, 'Auth': <class 'gluon.tools.Auth'>, 'B': <class 'gluon.html.B'>, 'BEAUTIFY': <class 'gluon.html.BEAUTIFY'>, 'BODY': <class 'gluon.html.BODY'>, 'BR': <class 'gluon.html.BR'>, 'BUTTON': <class 'gluon.html.BUTTON'>, ...}"
p75
sS'ccode'
p76
S'<code object <module> at 0000000002C76730, file ...\\web2py\\applications\\init\\models\\db.py", line 14>'
p77
ssS'lnum'
p78
I219
sS'lines'
p79
(dp80
I214
S'    if environment is None:'
p81
sI215
S'        environment = {}'
p82
sI216
S"    environment['__file__'] = layer"
p83
sI217
S"    environment['__name__'] = '__restricted__'"
p84
sI218
S'    try:'
p85
sI219
S'        exec(ccode, environment)'
p86
sI220
S'    except HTTP:'
p87
sI221
S'        raise'
p88
sI222
S'    except RestrictedError:'
p89
sI223
S'        # do not encapsulate (obfuscate) the original RestrictedError'
p90
ssS'call'
p91
S'(ccode=<code object <module> at 0000000002C76730, file ...\\web2py\\applications\\init\\models\\db.py", line 14>, environment={\'A\': <class \'gluon.html.A\'>, \'ANY_OF\': <class \'gluon.validators.ANY_OF\'>, \'ASSIGNJS\': <function ASSIGNJS>, \'AppConfig\': <function AppConfig>, \'Auth\': <class \'gluon.tools.Auth\'>, \'B\': <class \'gluon.html.B\'>, \'BEAUTIFY\': <class \'gluon.html.BEAUTIFY\'>, \'BODY\': <class \'gluon.html.BODY\'>, \'BR\': <class \'gluon.html.BR\'>, \'BUTTON\': <class \'gluon.html.BUTTON\'>, ...}, layer=r\'C:\\Users\\unificace\\unificace\\web2py\\applications\\init\\models\\db.py\', scode=<code object <module> at 0000000002C76730, file ...\\web2py\\applications\\init\\models\\db.py", line 14>)'
p92
sS'func'
p93
S'restricted'
p94
sa(dp95
g70
S'C:\\Users\\unificace\\unificace\\web2py\\applications\\init\\models\\db.py'
p96
sg72
(dp97
S'Field'
p98
S"<class 'pydal.objects.Field'>"
p99
sS'T'
S'<gluon.languages.translator object>'
p100
sS'label'
p101
S'undefined'
p102
ssg78
I585
sg79
(dp103
I580
S'                )'
p104
sI581
S''
sI582
S"db.define_table('resource_group',"
p105
sI583
S'                Field(\'resources_id\',\'integer\',label=T("Resources")),'
p106
sI584
S'                Field(\'groups_id\',\'integer\',label=T("Groups")),'
p107
sI585
S'                Field(\'team_id\',\'integer\',label=T("ID \xc3\x89quipe")),'
p108
sI586
S'                )'
p109
sI587
S''
sI588
S"db.define_table('resources_availability',"
p110
sI589
S"                Field('resources',db.resources,requires=IS_IN_DB(db,'resources.id','resources.title')),"
p111
ssg91
S'()'
p112
sg93
S'<module>'
p113
sa(dp114
g70
S'C:\\Users\\unificace\\unificace\\web2py\\gluon\\packages\\dal\\pydal\\base.py'
p115
sg72
(dp116
S'fields'
p117
S'(<pydal.objects.Field object>, <pydal.objects.Field object>, <pydal.objects.Field object>)'
p118
sS'self'
p119
S'<DAL uri="mssql4:******@S03VWPR00004.cemtl.rtss.qc.ca/unificace">'
p120
sS'args'
p121
S'{}'
p122
sS'tablename'
p123
S"'resource_group'"
p124
sS'table'
p125
g102
sS'self.lazy_define_table'
p126
S'<bound method DAL.lazy_define_table of <DAL uri=...******@S03VWPR00004.cemtl.rtss.qc.ca/unificace">>'
p127
ssg78
I586
sg79
(dp128
I581
S'                                  (tablename, invalid_args))'
p129
sI582
S'        if self._lazy_tables and tablename not in self._LAZY_TABLES:'
p130
sI583
S'            self._LAZY_TABLES[tablename] = (tablename, fields, args)'
p131
sI584
S'            table = None'
p132
sI585
S'        else:'
p133
sI586
S'            table = self.lazy_define_table(tablename, *fields, **args)'
p134
sI587
S'        if tablename not in self.tables:'
p135
sI588
S'            self.tables.append(tablename)'
p136
sI589
S'        return table'
p137
sI590
S''
ssg91
S'(self=<DAL uri="mssql4:******@S03VWPR00004.cemtl.rtss.qc.ca/unificace">, tablename=\'resource_group\', *fields=(<pydal.objects.Field object>, <pydal.objects.Field object>, <pydal.objects.Field object>), **args={})'
p138
sg93
S'define_table'
p139
sa(dp140
g70
S'C:\\Users\\unificace\\unificace\\web2py\\gluon\\packages\\dal\\pydal\\base.py'
p141
sg72
(dp142
S'polymodel'
p143
S'None'
p144
ssg78
I620
sg79
(dp145
I615
S'            try:'
p146
sI616
S'                GLOBAL_LOCKER.acquire()'
p147
sI617
S'                self._adapter.create_table('
p148
sI618
S'                    table, migrate=migrate,'
p149
sI619
S'                    fake_migrate=fake_migrate,'
p150
sI620
S'                    polymodel=polymodel)'
p151
sI621
S'            finally:'
p152
sI622
S'                GLOBAL_LOCKER.release()'
p153
sI623
S'        else:'
p154
sI624
S'            table._dbt = None'
p155
ssg91
S'(self=<DAL uri="mssql4:******@S03VWPR00004.cemtl.rtss.qc.ca/unificace">, tablename=\'resource_group\', *fields=(<pydal.objects.Field object>, <pydal.objects.Field object>, <pydal.objects.Field object>), **args={})'
p156
sg93
S'lazy_define_table'
p157
sa(dp158
g70
S'C:\\Users\\unificace\\unificace\\web2py\\gluon\\packages\\dal\\pydal\\adapters\\base.py'
p159
sg72
(dp160
S'self'
p161
S'<pydal.adapters.mssql.MSSQL4 object>'
p162
sS'args'
p163
S'(<Table resource_group (id, resources_id, groups_id, team_id)>,)'
p164
sS'self.migrator'
p165
S'<pydal.migrator.Migrator object>'
p166
sS'self.migrator.create_table'
p167
S'<bound method Migrator.create_table of <pydal.migrator.Migrator object>>'
p168
sS'kwargs'
p169
S"{'fake_migrate': False, 'migrate': True, 'polymodel': None}"
p170
ssg78
I797
sg79
(dp171
I800
S'        super(SQLAdapter, self)._drop_table_cleanup(table)'
p172
sI801
S'        if table._dbt:'
p173
sI792
S''
sI793
S'    def bulk_insert(self, table, items):'
p174
sI794
S'        return [self.insert(table, item) for item in items]'
p175
sI795
S''
sI796
S'    def create_table(self, *args, **kwargs):'
p176
sI797
S'        return self.migrator.create_table(*args, **kwargs)'
p177
sI798
S''
sI799
S'    def _drop_table_cleanup(self, table):'
p178
ssg91
S"(self=<pydal.adapters.mssql.MSSQL4 object>, *args=(<Table resource_group (id, resources_id, groups_id, team_id)>,), **kwargs={'fake_migrate': False, 'migrate': True, 'polymodel': None})"
p179
sg93
S'create_table'
p180
sa(dp181
g70
S'C:\\Users\\unificace\\unificace\\web2py\\gluon\\packages\\dal\\pydal\\migrator.py'
p182
sg72
(dp183
S'query'
p184
S'\'CREATE TABLE "resource_group"(\\n    "id" INT IDEN...  "groups_id" INT NULL,\\n    "team_id" INT NULL\\n);\''
p185
sS'self'
p186
S'<pydal.migrator.Migrator object>'
p187
sS'self.adapter'
p188
S'<pydal.adapters.mssql.MSSQL4 object>'
p189
sS'self.adapter.create_sequence_and_triggers'
p190
S'<bound method MSSQL4.create_sequence_and_triggers of <pydal.adapters.mssql.MSSQL4 object>>'
p191
sS'table'
p192
S'<Table resource_group (id, resources_id, groups_id, team_id)>'
p193
ssg78
I277
sg79
(dp194
I272
S'            if table._dbt:'
p195
sI273
S"                self.log('timestamp: %s\\n%s\\n'"
p196
sI274
S'                         % (datetime.datetime.today().isoformat(),'
p197
sI275
S'                            query), table)'
p198
sI276
S'            if not fake_migrate:'
p199
sI277
S'                self.adapter.create_sequence_and_triggers(query, table)'
p200
sI278
S'                db.commit()'
p201
sI279
S'                # Postgres geom fields are added now,'
p202
sI280
S'                # after the table has been created'
p203
sI281
S'                for query in postcreation_fields:'
p204
ssg91
S'(self=<pydal.migrator.Migrator object>, table=<Table resource_group (id, resources_id, groups_id, team_id)>, migrate=True, fake_migrate=False, polymodel=None)'
p205
sg93
g180
sa(dp206
g70
S'C:\\Users\\unificace\\unificace\\web2py\\gluon\\packages\\dal\\pydal\\adapters\\base.py'
p207
sg72
(dp208
S'query'
p209
S'\'CREATE TABLE "resource_group"(\\n    "id" INT IDEN...  "groups_id" INT NULL,\\n    "team_id" INT NULL\\n);\''
p210
sS'self'
p211
S'<pydal.adapters.mssql.MSSQL4 object>'
p212
sS'self.execute'
p213
S'<bound method MSSQL4.wrap of <pydal.adapters.mssql.MSSQL4 object>>'
p214
ssg78
I880
sg79
(dp215
I875
S'    @with_connection'
p216
sI876
S'    def rollback_prepared(self, key):'
p217
sI877
S'        self.connection.rollback()'
p218
sI878
S''
sI879
S'    def create_sequence_and_triggers(self, query, table, **args):'
p219
sI880
S'        self.execute(query)'
p220
sI881
S''
sI882
S'    def sqlsafe_table(self, tablename, original_tablename=None):'
p221
sI883
S'        if original_tablename is not None:'
p222
sI884
S'            return self.dialect.alias(original_tablename, tablename)'
p223
ssg91
S'(self=<pydal.adapters.mssql.MSSQL4 object>, query=\'CREATE TABLE "resource_group"(\\n    "id" INT IDEN...  "groups_id" INT NULL,\\n    "team_id" INT NULL\\n);\', table=<Table resource_group (id, resources_id, groups_id, team_id)>, **args={})'
p224
sg93
S'create_sequence_and_triggers'
p225
sa(dp226
g70
S'C:\\Users\\unificace\\unificace\\web2py\\gluon\\packages\\dal\\pydal\\adapters\\__init__.py'
p227
sg72
(dp228
S'kwargs'
p229
g122
sS'args'
p230
S'(<pydal.adapters.mssql.MSSQL4 object>, \'CREATE TABLE "resource_group"(\\n    "id" INT IDEN...  "groups_id" INT NULL,\\n    "team_id" INT NULL\\n);\')'
p231
sS'f'
S'<function execute>'
p232
ssg78
I67
sg79
(dp233
I64
S'            if len(args) > 1:'
p234
sI65
S'                raise ValueError(args[1])'
p235
sI66
S"            raise RuntimeError('no connection available')"
p236
sI67
S'        return f(*args, **kwargs)'
p237
sI68
S'    return wrap'
p238
sI69
S''
sI70
S''
sI71
S'from .base import SQLAdapter, NoSQLAdapter'
p239
sI62
S'    def wrap(*args, **kwargs):'
p240
sI63
S'        if not args[0].connection:'
p241
ssg91
S'(*args=(<pydal.adapters.mssql.MSSQL4 object>, \'CREATE TABLE "resource_group"(\\n    "id" INT IDEN...  "groups_id" INT NULL,\\n    "team_id" INT NULL\\n);\'), **kwargs={})'
p242
sg93
S'wrap'
p243
sa(dp244
g70
S'C:\\Users\\unificace\\unificace\\web2py\\gluon\\packages\\dal\\pydal\\adapters\\base.py'
p245
sg72
(dp246
S'rv'
p247
g102
sS'self'
p248
S'<pydal.adapters.mssql.MSSQL4 object>'
p249
sS'args'
p250
S'(\'CREATE TABLE "resource_group"(\\n    "id" INT IDEN...  "groups_id" INT NULL,\\n    "team_id" INT NULL\\n);\',)'
p251
sS'self.cursor'
p252
S'<gluon.contrib.pypyodbc.Cursor instance>'
p253
sS'command'
p254
S'\'CREATE TABLE "resource_group"(\\n    "id" INT IDEN...  "groups_id" INT NULL,\\n    "team_id" INT NULL\\n);\''
p255
sS'self.cursor.execute'
p256
S'<bound method Cursor.execute of <gluon.contrib.pypyodbc.Cursor instance>>'
p257
sS'kwargs'
p258
g122
ssg78
I412
sg79
(dp259
I416
S''
sI407
S'    def execute(self, *args, **kwargs):'
p260
sI408
S'        command = self.filter_sql_command(args[0])'
p261
sI409
S'        handlers = self._build_handlers_for_execution()'
p262
sI410
S'        for handler in handlers:'
p263
sI411
S'            handler.before_execute(command)'
p264
sI412
S'        rv = self.cursor.execute(command, *args[1:], **kwargs)'
p265
sI413
S'        for handler in handlers:'
p266
sI414
S'            handler.after_execute(command)'
p267
sI415
S'        return rv'
p268
ssg91
S'(self=<pydal.adapters.mssql.MSSQL4 object>, *args=(\'CREATE TABLE "resource_group"(\\n    "id" INT IDEN...  "groups_id" INT NULL,\\n    "team_id" INT NULL\\n);\',), **kwargs={})'
p269
sg93
S'execute'
p270
sa(dp271
g70
S'C:\\Users\\unificace\\unificace\\web2py\\gluon\\contrib\\pypyodbc.py'
p272
sg72
(dp273
S'query_string'
p274
S'\'CREATE TABLE "resource_group"(\\n    "id" INT IDEN...  "groups_id" INT NULL,\\n    "team_id" INT NULL\\n);\''
p275
sS'self'
p276
S'<gluon.contrib.pypyodbc.Cursor instance>'
p277
sS'self.execdirect'
p278
S'<bound method Cursor.execdirect of <gluon.contrib.pypyodbc.Cursor instance>>'
p279
ssg78
I1605
sg79
(dp280
I1600
S'                self._NumOfRows()'
p281
sI1601
S'                self._UpdateDesc()'
p282
sI1602
S'                #self._BindCols()'
p283
sI1603
S''
sI1604
S'        else:'
p284
sI1605
S'            self.execdirect(query_string)'
p285
sI1606
S'        return self'
p286
sI1607
S''
sI1608
S''
sI1609
S'    def _SQLExecute(self):'
p287
ssg91
S'(self=<gluon.contrib.pypyodbc.Cursor instance>, query_string=\'CREATE TABLE "resource_group"(\\n    "id" INT IDEN...  "groups_id" INT NULL,\\n    "team_id" INT NULL\\n);\', params=None, many_mode=False, call_mode=False)'
p288
sg93
g270
sa(dp289
g70
S'C:\\Users\\unificace\\unificace\\web2py\\gluon\\contrib\\pypyodbc.py'
p290
sg72
(dp291
S'self'
p292
S'<gluon.contrib.pypyodbc.Cursor instance>'
p293
sS'global check_success'
p294
S'<function check_success>'
p295
sS'ret'
p296
S'-1'
p297
ssg78
I1631
sg79
(dp298
I1632
S'        self._NumOfRows()'
p299
sI1633
S'        self._UpdateDesc()'
p300
sI1634
S'        #self._BindCols()'
p301
sI1635
S'        return self'
p302
sI1626
S'            c_query_string = wchar_pointer(UCS_buf(query_string))'
p303
sI1627
S'            ret = ODBC_API.SQLExecDirectW(self.stmt_h, c_query_string, len(query_string))'
p304
sI1628
S'        else:'
p305
sI1629
S'            c_query_string = ctypes.c_char_p(query_string)'
p306
sI1630
S'            ret = ODBC_API.SQLExecDirect(self.stmt_h, c_query_string, len(query_string))'
p307
sI1631
S'        check_success(self, ret)'
p308
ssg91
S'(self=<gluon.contrib.pypyodbc.Cursor instance>, query_string=\'CREATE TABLE "resource_group"(\\n    "id" INT IDEN...  "groups_id" INT NULL,\\n    "team_id" INT NULL\\n);\')'
p309
sg93
S'execdirect'
p310
sa(dp311
g70
S'C:\\Users\\unificace\\unificace\\web2py\\gluon\\contrib\\pypyodbc.py'
p312
sg72
(dp313
S'ODBC_obj'
p314
S'<gluon.contrib.pypyodbc.Cursor instance>'
p315
sS'global ctrl_err'
p316
S'<function ctrl_err>'
p317
sS'ret'
p318
S'-1'
p319
sS'ODBC_obj.stmt_h'
p320
S'c_void_p(20310176L)'
p321
sS'global SQL_HANDLE_STMT'
p322
S'3'
sS'ODBC_obj.ansi'
p323
S'False'
p324
ssg78
I986
sg79
(dp325
I981
S''
sI982
S'def check_success(ODBC_obj, ret):'
p326
sI983
S'    """ Validate return value, if not success, raise exceptions based on the handle """'
p327
sI984
S'    if ret not in (SQL_SUCCESS, SQL_SUCCESS_WITH_INFO, SQL_NO_DATA):'
p328
sI985
S'        if isinstance(ODBC_obj, Cursor):'
p329
sI986
S'            ctrl_err(SQL_HANDLE_STMT, ODBC_obj.stmt_h, ret, ODBC_obj.ansi)'
p330
sI987
S'        elif isinstance(ODBC_obj, Connection):'
p331
sI988
S'            ctrl_err(SQL_HANDLE_DBC, ODBC_obj.dbc_h, ret, ODBC_obj.ansi)'
p332
sI989
S'        else:'
p333
sI990
S'            ctrl_err(SQL_HANDLE_ENV, ODBC_obj, ret, False)'
p334
ssg91
S'(ODBC_obj=<gluon.contrib.pypyodbc.Cursor instance>, ret=-1)'
p335
sg93
S'check_success'
p336
sa(dp337
g70
S'C:\\Users\\unificace\\unificace\\web2py\\gluon\\contrib\\pypyodbc.py'
p338
sg72
(dp339
S'state'
p340
S"u'42S01'"
p341
sS'err_text'
p342
S'u"[42S01] [Microsoft][ODBC SQL Server Driver][SQ...n object named \'resource_group\' in the database."'
p343
sS'global ProgrammingError'
p344
S"<class 'gluon.contrib.pypyodbc.ProgrammingError'>"
p345
ssg78
I954
sg79
(dp346
I949
S'            #No more data, I can raise'
p347
sI950
S'            #print(err_list[0][1])'
p348
sI951
S'            state = err_list[0][0]'
p349
sI952
S"            err_text = raw_s('[')+state+raw_s('] ')+err_list[0][1]"
p350
sI953
S"            if state[:2] in (raw_s('24'),raw_s('25'),raw_s('42')):"
p351
sI954
S'                raise ProgrammingError(state,err_text)'
p352
sI955
S"            elif state[:2] in (raw_s('22')):"
p353
sI956
S'                raise DataError(state,err_text)'
p354
sI957
S"            elif state[:2] in (raw_s('23')) or state == raw_s('40002'):"
p355
sI958
S'                raise IntegrityError(state,err_text)'
p356
ssg91
S'(ht=3, h=c_void_p(20310176L), val_ret=-1, ansi=False)'
p357
sg93
S'ctrl_err'
p358
sasS'pyver'
p359
S'Python 2.7.13: c:\\python27\\python.exe (prefix: c:\\python27)'
p360
sS'session'
p361
g65
(S's\x1a\x00\x00\x00<div><table></table></div>'
tRp362
sS'etype'
p363
S"<class 'gluon.contrib.pypyodbc.ProgrammingError'>"
p364
sS'date'
p365
S'Sun Jun 18 13:43:02 2023'
p366
sS'response'
p367
g65
(S's!\x16\x00\x00<div><table><tr><td style="font-weight:bold;vertical-align:top;">body</td><td style="vertical-align:top;">:</td><td><div>&lt;cStringIO.StringO object at 0x00000000058088B8&gt;</div></td></tr><tr><td style="font-weight:bold;vertical-align:top;">cookies</td><td style="vertical-align:top;">:</td><td><div><table><tr><td style="font-weight:bold;vertical-align:top;">session_id_init</td><td style="vertical-align:top;">:</td><td><div>10.129.64.51-a2850b6c-d77a-4a02-aa0a-ff03ebc304d7<table><tr><td style="font-weight:bold;vertical-align:top;">comment</td><td style="vertical-align:top;">:</td><td><div></div></td></tr><tr><td style="font-weight:bold;vertical-align:top;">domain</td><td style="vertical-align:top;">:</td><td><div></div></td></tr><tr><td style="font-weight:bold;vertical-align:top;">expires</td><td style="vertical-align:top;">:</td><td><div></div></td></tr><tr><td style="font-weight:bold;vertical-align:top;">httponly</td><td style="vertical-align:top;">:</td><td><div></div></td></tr><tr><td style="font-weight:bold;vertical-align:top;">max-age</td><td style="vertical-align:top;">:</td><td><div></div></td></tr><tr><td style="font-weight:bold;vertical-align:top;">path</td><td style="vertical-align:top;">:</td><td><div>/</div></td></tr><tr><td style="font-weight:bold;vertical-align:top;">secure</td><td style="vertical-align:top;">:</td><td><div></div></td></tr><tr><td style="font-weight:bold;vertical-align:top;">version</td><td style="vertical-align:top;">:</td><td><div></div></td></tr></table></div></td></tr></table></div></td></tr><tr><td style="font-weight:bold;vertical-align:top;">delimiters</td><td style="vertical-align:top;">:</td><td><div><table><tr><td><div>{{</div></td></tr><tr><td><div>}}</div></td></tr></table></div></td></tr><tr><td style="font-weight:bold;vertical-align:top;">files</td><td style="vertical-align:top;">:</td><td><div><table></table></div></td></tr><tr><td style="font-weight:bold;vertical-align:top;">flash</td><td style="vertical-align:top;">:</td><td><div></div></td></tr><tr><td style="font-weight:bold;vertical-align:top;">form_label_separator</td><td style="vertical-align:top;">:</td><td><div></div></td></tr><tr><td style="font-weight:bold;vertical-align:top;">formstyle</td><td style="vertical-align:top;">:</td><td><div>bootstrap3_inline</div></td></tr><tr><td style="font-weight:bold;vertical-align:top;">generic_patterns</td><td style="vertical-align:top;">:</td><td><div><table></table></div></td></tr><tr><td style="font-weight:bold;vertical-align:top;">headers</td><td style="vertical-align:top;">:</td><td><div><table><tr><td style="font-weight:bold;vertical-align:top;">X-Powered-By</td><td style="vertical-align:top;">:</td><td><div>web2py</div></td></tr></table></div></td></tr><tr><td style="font-weight:bold;vertical-align:top;">menu</td><td style="vertical-align:top;">:</td><td><div><table></table></div></td></tr><tr><td style="font-weight:bold;vertical-align:top;">meta</td><td style="vertical-align:top;">:</td><td><div><table></table></div></td></tr><tr><td style="font-weight:bold;vertical-align:top;">models_to_run</td><td style="vertical-align:top;">:</td><td><div><table><tr><td><div>^\\w+\\.py$</div></td></tr><tr><td><div>^default/\\w+\\.py$</div></td></tr><tr><td><div>^default/index/\\w+\\.py$</div></td></tr></table></div></td></tr><tr><td style="font-weight:bold;vertical-align:top;">postprocessing</td><td style="vertical-align:top;">:</td><td><div><table></table></div></td></tr><tr><td style="font-weight:bold;vertical-align:top;">session_client</td><td style="vertical-align:top;">:</td><td><div>10.129.64.51</div></td></tr><tr><td style="font-weight:bold;vertical-align:top;">session_cookie_compression_level</td><td style="vertical-align:top;">:</td><td><div>None</div></td></tr><tr><td style="font-weight:bold;vertical-align:top;">session_cookie_expires</td><td style="vertical-align:top;">:</td><td><div>None</div></td></tr><tr><td style="font-weight:bold;vertical-align:top;">session_data_name</td><td style="vertical-align:top;">:</td><td><div>session_data_init</div></td></tr><tr><td style="font-weight:bold;vertical-align:top;">session_file</td><td style="vertical-align:top;">:</td><td><div>None</div></td></tr><tr><td style="font-weight:bold;vertical-align:top;">session_filename</td><td style="vertical-align:top;">:</td><td><div>C:\\Users\\unificace\\unificace\\web2py\\applications\\init\\sessions\\10.129.64.51-a2850b6c-d77a-4a02-aa0a-ff03ebc304d7</div></td></tr><tr><td style="font-weight:bold;vertical-align:top;">session_hash</td><td style="vertical-align:top;">:</td><td><div>c0762cbf4baf7f9af97c051e7fcb8083</div></td></tr><tr><td style="font-weight:bold;vertical-align:top;">session_id</td><td style="vertical-align:top;">:</td><td><div>10.129.64.51-a2850b6c-d77a-4a02-aa0a-ff03ebc304d7</div></td></tr><tr><td style="font-weight:bold;vertical-align:top;">session_id_name</td><td style="vertical-align:top;">:</td><td><div>session_id_init</div></td></tr><tr><td style="font-weight:bold;vertical-align:top;">session_masterapp</td><td style="vertical-align:top;">:</td><td><div>init</div></td></tr><tr><td style="font-weight:bold;vertical-align:top;">session_new</td><td style="vertical-align:top;">:</td><td><div>True</div></td></tr><tr><td style="font-weight:bold;vertical-align:top;">session_storage_type</td><td style="vertical-align:top;">:</td><td><div>file</div></td></tr><tr><td style="font-weight:bold;vertical-align:top;">status</td><td style="vertical-align:top;">:</td><td><div>200</div></td></tr><tr><td style="font-weight:bold;vertical-align:top;">view</td><td style="vertical-align:top;">:</td><td><div>default/index.html</div></td></tr></table></div>'
tRp368
sS'locals'
p369
(dp370
S'err_list'
p371
S'[(u\'42S01\', u"[Microsoft][ODBC SQL Server Driver][SQL Server...n object named \'resource_group\' in the database.", 2714)]'
p372
sS'h'
S'c_void_p(20310176L)'
p373
sS'raw_s'
p374
S"<type 'unicode'>"
p375
sS'ht'
p376
S'3'
sS'Buffer_len'
p377
S'c_short(0)'
p378
sS'ansi'
p379
g324
sS'state'
p380
S"u'42S01'"
p381
sS'ODBC_func'
p382
S'<_FuncPtr object>'
p383
sS'ret'
p384
S'100'
p385
sS'Message'
p386
S'<ctypes.c_wchar_Array_4096 object>'
p387
sS'val_ret'
p388
S'-1'
p389
sS'number_errors'
p390
S'2'
sS'NativeError'
p391
S'c_long(2714)'
p392
sS'err_text'
p393
S'u"[42S01] [Microsoft][ODBC SQL Server Driver][SQ...n object named \'resource_group\' in the database."'
p394
sssS'traceback'
p395
S'Traceback (most recent call last):\n  File ".\\gluon\\restricted.py", line 219, in restricted\n    exec(ccode, environment)\n  File "C:\\Users\\unificace\\unificace\\web2py\\applications\\init\\models\\db.py", line 585, in <module>\n    Field(\'team_id\',\'integer\',label=T("ID \xc3\x89quipe")),\n  File "C:\\Users\\unificace\\unificace\\web2py\\gluon\\packages\\dal\\pydal\\base.py", line 586, in define_table\n    table = self.lazy_define_table(tablename, *fields, **args)\n  File "C:\\Users\\unificace\\unificace\\web2py\\gluon\\packages\\dal\\pydal\\base.py", line 620, in lazy_define_table\n    polymodel=polymodel)\n  File "C:\\Users\\unificace\\unificace\\web2py\\gluon\\packages\\dal\\pydal\\adapters\\base.py", line 797, in create_table\n    return self.migrator.create_table(*args, **kwargs)\n  File "C:\\Users\\unificace\\unificace\\web2py\\gluon\\packages\\dal\\pydal\\migrator.py", line 277, in create_table\n    self.adapter.create_sequence_and_triggers(query, table)\n  File "C:\\Users\\unificace\\unificace\\web2py\\gluon\\packages\\dal\\pydal\\adapters\\base.py", line 880, in create_sequence_and_triggers\n    self.execute(query)\n  File "C:\\Users\\unificace\\unificace\\web2py\\gluon\\packages\\dal\\pydal\\adapters\\__init__.py", line 67, in wrap\n    return f(*args, **kwargs)\n  File "C:\\Users\\unificace\\unificace\\web2py\\gluon\\packages\\dal\\pydal\\adapters\\base.py", line 412, in execute\n    rv = self.cursor.execute(command, *args[1:], **kwargs)\n  File ".\\gluon\\contrib\\pypyodbc.py", line 1605, in execute\n    self.execdirect(query_string)\n  File ".\\gluon\\contrib\\pypyodbc.py", line 1631, in execdirect\n    check_success(self, ret)\n  File ".\\gluon\\contrib\\pypyodbc.py", line 986, in check_success\n    ctrl_err(SQL_HANDLE_STMT, ODBC_obj.stmt_h, ret, ODBC_obj.ansi)\n  File ".\\gluon\\contrib\\pypyodbc.py", line 954, in ctrl_err\n    raise ProgrammingError(state,err_text)\nProgrammingError: (u\'42S01\', u"[42S01] [Microsoft][ODBC SQL Server Driver][SQL Server]There is already an object named \'resource_group\' in the database.")\n'
p396
s.