(dp1
S'output'
p2
S'<class \'gluon.contrib.pypyodbc.ProgrammingError\'> (u\'42S01\', u"[42S01] [Microsoft][ODBC SQL Server Driver][SQL Server]There is already an object named \'vcenters_host\' in the database.")'
p3
sS'layer'
p4
S'C:\\Users\\unificace\\unificace\\web2py\\applications\\init\\models\\db.py'
p5
sS'code'
p6
S'<code object <module> at 0000000002C0D730, file "C:\\Users\\unificace\\unificace\\web2py\\applications\\init\\models\\db.py", line 14>'
p7
sS'snapshot'
p8
(dp9
S'exception'
p10
(dp11
S'__module__'
p12
S"'gluon.contrib.pypyodbc'"
p13
sS'__getslice__'
p14
S"<method-wrapper '__getslice__' of ProgrammingError object>"
p15
sS'__str__'
p16
S"<method-wrapper '__str__' of ProgrammingError object>"
p17
sS'__reduce__'
p18
S'<built-in method __reduce__ of ProgrammingError object>'
p19
sS'__dict__'
p20
S'{\'value\': (u\'42S01\', u"[42S01] [Microsoft][ODBC SQL Server Driver][SQ...an object named \'vcenters_host\' in the database.")}'
p21
sS'__sizeof__'
p22
S'<built-in method __sizeof__ of ProgrammingError object>'
p23
sS'__weakref__'
p24
S'None'
p25
sS'message'
p26
S"''"
p27
sS'__init__'
p28
S'<bound method ProgrammingError.__init__ of Progr... object named \'vcenters_host\' in the database.")>'
p29
sS'__setattr__'
p30
S"<method-wrapper '__setattr__' of ProgrammingError object>"
p31
sS'__reduce_ex__'
p32
S'<built-in method __reduce_ex__ of ProgrammingError object>'
p33
sS'__new__'
p34
S'<built-in method __new__ of type object>'
p35
sS'__format__'
p36
S'<built-in method __format__ of ProgrammingError object>'
p37
sS'__class__'
p38
S"<class 'gluon.contrib.pypyodbc.ProgrammingError'>"
p39
sS'__doc__'
p40
S'None'
p41
sS'__getitem__'
p42
S"<method-wrapper '__getitem__' of ProgrammingError object>"
p43
sS'__setstate__'
p44
S'<built-in method __setstate__ of ProgrammingError object>'
p45
sS'__getattribute__'
p46
S"<method-wrapper '__getattribute__' of ProgrammingError object>"
p47
sS'args'
p48
S'(u\'42S01\', u"[42S01] [Microsoft][ODBC SQL Server Driver][SQ...an object named \'vcenters_host\' in the database.")'
p49
sS'__subclasshook__'
p50
S'<built-in method __subclasshook__ of type object>'
p51
sS'__unicode__'
p52
S'<built-in method __unicode__ of ProgrammingError object>'
p53
sS'value'
p54
S'(u\'42S01\', u"[42S01] [Microsoft][ODBC SQL Server Driver][SQ...an object named \'vcenters_host\' in the database.")'
p55
sS'__delattr__'
p56
S"<method-wrapper '__delattr__' of ProgrammingError object>"
p57
sS'__repr__'
p58
S"<method-wrapper '__repr__' of ProgrammingError object>"
p59
sS'__hash__'
p60
S"<method-wrapper '__hash__' of ProgrammingError object>"
p61
ssS'evalue'
p62
S'(u\'42S01\', u"[42S01] [Microsoft][ODBC SQL Server Driver][SQL Server]There is already an object named \'vcenters_host\' in the database.")'
p63
sS'request'
p64
cgluon.html
XML_unpickle
p65
(S'syd\x00\x00<div><table><tr><td style="font-weight:bold;vertical-align:top;">ajax</td><td style="vertical-align:top;">:</td><td><div>False</div></td></tr><tr><td style="font-weight:bold;vertical-align:top;">application</td><td style="vertical-align:top;">:</td><td><div>init</div></td></tr><tr><td style="font-weight:bold;vertical-align:top;">args</td><td style="vertical-align:top;">:</td><td><div><table></table></div></td></tr><tr><td style="font-weight:bold;vertical-align:top;">cid</td><td style="vertical-align:top;">:</td><td><div>None</div></td></tr><tr><td style="font-weight:bold;vertical-align:top;">client</td><td style="vertical-align:top;">:</td><td><div>10.129.64.51</div></td></tr><tr><td style="font-weight:bold;vertical-align:top;">controller</td><td style="vertical-align:top;">:</td><td><div>default</div></td></tr><tr><td style="font-weight:bold;vertical-align:top;">cookies</td><td style="vertical-align:top;">:</td><td><div><table></table></div></td></tr><tr><td style="font-weight:bold;vertical-align:top;">env</td><td style="vertical-align:top;">:</td><td><div><table><tr><td style="font-weight:bold;vertical-align:top;">APPL_MD_PATH</td><td style="vertical-align:top;">:</td><td><div>/LM/W3SVC/2/ROOT</div></td></tr><tr><td style="font-weight:bold;vertical-align:top;">APPL_PHYSICAL_PATH</td><td style="vertical-align:top;">:</td><td><div>C:\\Users\\unificace\\unificace\\web2py\\</div></td></tr><tr><td style="font-weight:bold;vertical-align:top;">APP_POOL_CONFIG</td><td style="vertical-align:top;">:</td><td><div>C:\\inetpub\\temp\\apppools\\unificace\\unificace.config</div></td></tr><tr><td style="font-weight:bold;vertical-align:top;">APP_POOL_ID</td><td style="vertical-align:top;">:</td><td><div>unificace</div></td></tr><tr><td style="font-weight:bold;vertical-align:top;">AUTH_PASSWORD</td><td style="vertical-align:top;">:</td><td><div></div></td></tr><tr><td style="font-weight:bold;vertical-align:top;">AUTH_TYPE</td><td style="vertical-align:top;">:</td><td><div></div></td></tr><tr><td style="font-weight:bold;vertical-align:top;">AUTH_USER</td><td style="vertical-align:top;">:</td><td><div></div></td></tr><tr><td style="font-weight:bold;vertical-align:top;">CERT_COOKIE</td><td style="vertical-align:top;">:</td><td><div></div></td></tr><tr><td style="font-weight:bold;vertical-align:top;">CERT_FLAGS</td><td style="vertical-align:top;">:</td><td><div></div></td></tr><tr><td style="font-weight:bold;vertical-align:top;">CERT_ISSUER</td><td style="vertical-align:top;">:</td><td><div></div></td></tr><tr><td style="font-weight:bold;vertical-align:top;">CERT_SERIALNUMBER</td><td style="vertical-align:top;">:</td><td><div></div></td></tr><tr><td style="font-weight:bold;vertical-align:top;">CERT_SUBJECT</td><td style="vertical-align:top;">:</td><td><div></div></td></tr><tr><td style="font-weight:bold;vertical-align:top;">CONTENT_LENGTH</td><td style="vertical-align:top;">:</td><td><div>0</div></td></tr><tr><td style="font-weight:bold;vertical-align:top;">CONTENT_TYPE</td><td style="vertical-align:top;">:</td><td><div></div></td></tr><tr><td style="font-weight:bold;vertical-align:top;">DOCUMENT_ROOT</td><td style="vertical-align:top;">:</td><td><div>C:\\Users\\unificace\\unificace\\web2py</div></td></tr><tr><td style="font-weight:bold;vertical-align:top;">GATEWAY_INTERFACE</td><td style="vertical-align:top;">:</td><td><div>CGI/1.1</div></td></tr><tr><td style="font-weight:bold;vertical-align:top;">HTTPS</td><td style="vertical-align:top;">:</td><td><div>on</div></td></tr><tr><td style="font-weight:bold;vertical-align:top;">HTTPS_KEYSIZE</td><td style="vertical-align:top;">:</td><td><div>256</div></td></tr><tr><td style="font-weight:bold;vertical-align:top;">HTTPS_SECRETKEYSIZE</td><td style="vertical-align:top;">:</td><td><div>2048</div></td></tr><tr><td style="font-weight:bold;vertical-align:top;">HTTPS_SERVER_ISSUER</td><td style="vertical-align:top;">:</td><td><div>C=US, O=&quot;Entrust, Inc.&quot;, OU=See www.entrust.net/legal-terms, OU=&quot;(c) 2012 Entrust, Inc. - for authorized use only&quot;, CN=Entrust Certification Authority - L1K</div></td></tr><tr><td style="font-weight:bold;vertical-align:top;">HTTPS_SERVER_SUBJECT</td><td style="vertical-align:top;">:</td><td><div>C=CA, S=Quebec, L=Quebec, O=Minist\xe8re de la sant\xe9 et des services sociaux du Qu\xe9bec, CN=*.cemtl.rtss.qc.ca</div></td></tr><tr><td style="font-weight:bold;vertical-align:top;">HTTP_CONNECTION</td><td style="vertical-align:top;">:</td><td><div>Close</div></td></tr><tr><td style="font-weight:bold;vertical-align:top;">HTTP_CONTENT_LENGTH</td><td style="vertical-align:top;">:</td><td><div>0</div></td></tr><tr><td style="font-weight:bold;vertical-align:top;">HTTP_HOST</td><td style="vertical-align:top;">:</td><td><div>10.129.65.41:443</div></td></tr><tr><td style="font-weight:bold;vertical-align:top;">HTTP_X_ORIGINAL_URL</td><td style="vertical-align:top;">:</td><td><div>/</div></td></tr><tr><td style="font-weight:bold;vertical-align:top;">IIS_UrlRewriteModule</td><td style="vertical-align:top;">:</td><td><div>7.1.1980.0</div></td></tr><tr><td style="font-weight:bold;vertical-align:top;">IIS_WasUrlRewritten</td><td style="vertical-align:top;">:</td><td><div>1</div></td></tr><tr><td style="font-weight:bold;vertical-align:top;">INSTANCE_ID</td><td style="vertical-align:top;">:</td><td><div>2</div></td></tr><tr><td style="font-weight:bold;vertical-align:top;">INSTANCE_META_PATH</td><td style="vertical-align:top;">:</td><td><div>/LM/W3SVC/2</div></td></tr><tr><td style="font-weight:bold;vertical-align:top;">INSTANCE_NAME</td><td style="vertical-align:top;">:</td><td><div>UNIFICACE</div></td></tr><tr><td style="font-weight:bold;vertical-align:top;">LOCAL_ADDR</td><td style="vertical-align:top;">:</td><td><div>10.129.65.41</div></td></tr><tr><td style="font-weight:bold;vertical-align:top;">LOGON_USER</td><td style="vertical-align:top;">:</td><td><div></div></td></tr><tr><td style="font-weight:bold;vertical-align:top;">PATH_INFO</td><td style="vertical-align:top;">:</td><td><div>/</div></td></tr><tr><td style="font-weight:bold;vertical-align:top;">PATH_TRANSLATED</td><td style="vertical-align:top;">:</td><td><div>C:\\Users\\unificace\\unificace\\web2py\\handler.web2py\\</div></td></tr><tr><td style="font-weight:bold;vertical-align:top;">QUERY_STRING</td><td style="vertical-align:top;">:</td><td><div></div></td></tr><tr><td style="font-weight:bold;vertical-align:top;">REMOTE_ADDR</td><td style="vertical-align:top;">:</td><td><div>10.129.64.51</div></td></tr><tr><td style="font-weight:bold;vertical-align:top;">REMOTE_HOST</td><td style="vertical-align:top;">:</td><td><div>10.129.64.51</div></td></tr><tr><td style="font-weight:bold;vertical-align:top;">REMOTE_PORT</td><td style="vertical-align:top;">:</td><td><div>28614</div></td></tr><tr><td style="font-weight:bold;vertical-align:top;">REMOTE_USER</td><td style="vertical-align:top;">:</td><td><div></div></td></tr><tr><td style="font-weight:bold;vertical-align:top;">REQUEST_METHOD</td><td style="vertical-align:top;">:</td><td><div>HEAD</div></td></tr><tr><td style="font-weight:bold;vertical-align:top;">REQUEST_URI</td><td style="vertical-align:top;">:</td><td><div>/</div></td></tr><tr><td style="font-weight:bold;vertical-align:top;">SCRIPT_FILENAME</td><td style="vertical-align:top;">:</td><td><div>C:\\Users\\unificace\\unificace\\web2py\\handler.web2py</div></td></tr><tr><td style="font-weight:bold;vertical-align:top;">SCRIPT_NAME</td><td style="vertical-align:top;">:</td><td><div></div></td></tr><tr><td style="font-weight:bold;vertical-align:top;">SERVER_NAME</td><td style="vertical-align:top;">:</td><td><div>10.129.65.41</div></td></tr><tr><td style="font-weight:bold;vertical-align:top;">SERVER_PORT</td><td style="vertical-align:top;">:</td><td><div>443</div></td></tr><tr><td style="font-weight:bold;vertical-align:top;">SERVER_PORT_SECURE</td><td style="vertical-align:top;">:</td><td><div>1</div></td></tr><tr><td style="font-weight:bold;vertical-align:top;">SERVER_PROTOCOL</td><td style="vertical-align:top;">:</td><td><div>HTTP/1.1</div></td></tr><tr><td style="font-weight:bold;vertical-align:top;">SERVER_SOFTWARE</td><td style="vertical-align:top;">:</td><td><div>Microsoft-IIS/8.5</div></td></tr><tr><td style="font-weight:bold;vertical-align:top;">UNENCODED_URL</td><td style="vertical-align:top;">:</td><td><div>/</div></td></tr><tr><td style="font-weight:bold;vertical-align:top;">URL</td><td style="vertical-align:top;">:</td><td><div>/handler.web2py</div></td></tr><tr><td style="font-weight:bold;vertical-align:top;">app_folders</td><td style="vertical-align:top;">:</td><td><div>set([&#x27;C:\\\\Users\\\\unificace\\\\unificace\\\\web2py\\\\applications\\\\init\\\\&#x27;])</div></td></tr><tr><td style="font-weight:bold;vertical-align:top;">app_pool_config</td><td style="vertical-align:top;">:</td><td><div>C:\\inetpub\\temp\\apppools\\unificace\\unificace.config</div></td></tr><tr><td style="font-weight:bold;vertical-align:top;">app_pool_id</td><td style="vertical-align:top;">:</td><td><div>unificace</div></td></tr><tr><td style="font-weight:bold;vertical-align:top;">appl_md_path</td><td style="vertical-align:top;">:</td><td><div>/LM/W3SVC/2/ROOT</div></td></tr><tr><td style="font-weight:bold;vertical-align:top;">appl_physical_path</td><td style="vertical-align:top;">:</td><td><div>C:\\Users\\unificace\\unificace\\web2py\\</div></td></tr><tr><td style="font-weight:bold;vertical-align:top;">applications_parent</td><td style="vertical-align:top;">:</td><td><div>C:\\Users\\unificace\\unificace\\web2py</div></td></tr><tr><td style="font-weight:bold;vertical-align:top;">auth_password</td><td style="vertical-align:top;">:</td><td><div></div></td></tr><tr><td style="font-weight:bold;vertical-align:top;">auth_type</td><td style="vertical-align:top;">:</td><td><div></div></td></tr><tr><td style="font-weight:bold;vertical-align:top;">auth_user</td><td style="vertical-align:top;">:</td><td><div></div></td></tr><tr><td style="font-weight:bold;vertical-align:top;">cert_cookie</td><td style="vertical-align:top;">:</td><td><div></div></td></tr><tr><td style="font-weight:bold;vertical-align:top;">cert_flags</td><td style="vertical-align:top;">:</td><td><div></div></td></tr><tr><td style="font-weight:bold;vertical-align:top;">cert_issuer</td><td style="vertical-align:top;">:</td><td><div></div></td></tr><tr><td style="font-weight:bold;vertical-align:top;">cert_serialnumber</td><td style="vertical-align:top;">:</td><td><div></div></td></tr><tr><td style="font-weight:bold;vertical-align:top;">cert_subject</td><td style="vertical-align:top;">:</td><td><div></div></td></tr><tr><td style="font-weight:bold;vertical-align:top;">content_length</td><td style="vertical-align:top;">:</td><td><div>0</div></td></tr><tr><td style="font-weight:bold;vertical-align:top;">content_type</td><td style="vertical-align:top;">:</td><td><div></div></td></tr><tr><td style="font-weight:bold;vertical-align:top;">db_sessions</td><td style="vertical-align:top;">:</td><td><div>set([])</div></td></tr><tr><td style="font-weight:bold;vertical-align:top;">debugging</td><td style="vertical-align:top;">:</td><td><div>False</div></td></tr><tr><td style="font-weight:bold;vertical-align:top;">document_root</td><td style="vertical-align:top;">:</td><td><div>C:\\Users\\unificace\\unificace\\web2py</div></td></tr><tr><td style="font-weight:bold;vertical-align:top;">gateway_interface</td><td style="vertical-align:top;">:</td><td><div>CGI/1.1</div></td></tr><tr><td style="font-weight:bold;vertical-align:top;">gluon_parent</td><td style="vertical-align:top;">:</td><td><div>C:\\Users\\unificace\\unificace\\web2py</div></td></tr><tr><td style="font-weight:bold;vertical-align:top;">http_connection</td><td style="vertical-align:top;">:</td><td><div>Close</div></td></tr><tr><td style="font-weight:bold;vertical-align:top;">http_content_length</td><td style="vertical-align:top;">:</td><td><div>0</div></td></tr><tr><td style="font-weight:bold;vertical-align:top;">http_host</td><td style="vertical-align:top;">:</td><td><div>10.129.65.41:443</div></td></tr><tr><td style="font-weight:bold;vertical-align:top;">http_x_original_url</td><td style="vertical-align:top;">:</td><td><div>/</div></td></tr><tr><td style="font-weight:bold;vertical-align:top;">https</td><td style="vertical-align:top;">:</td><td><div>on</div></td></tr><tr><td style="font-weight:bold;vertical-align:top;">https_keysize</td><td style="vertical-align:top;">:</td><td><div>256</div></td></tr><tr><td style="font-weight:bold;vertical-align:top;">https_secretkeysize</td><td style="vertical-align:top;">:</td><td><div>2048</div></td></tr><tr><td style="font-weight:bold;vertical-align:top;">https_server_issuer</td><td style="vertical-align:top;">:</td><td><div>C=US, O=&quot;Entrust, Inc.&quot;, OU=See www.entrust.net/legal-terms, OU=&quot;(c) 2012 Entrust, Inc. - for authorized use only&quot;, CN=Entrust Certification Authority - L1K</div></td></tr><tr><td style="font-weight:bold;vertical-align:top;">https_server_subject</td><td style="vertical-align:top;">:</td><td><div>C=CA, S=Quebec, L=Quebec, O=Minist\xe8re de la sant\xe9 et des services sociaux du Qu\xe9bec, CN=*.cemtl.rtss.qc.ca</div></td></tr><tr><td style="font-weight:bold;vertical-align:top;">iis_urlrewritemodule</td><td style="vertical-align:top;">:</td><td><div>7.1.1980.0</div></td></tr><tr><td style="font-weight:bold;vertical-align:top;">iis_wasurlrewritten</td><td style="vertical-align:top;">:</td><td><div>1</div></td></tr><tr><td style="font-weight:bold;vertical-align:top;">instance_id</td><td style="vertical-align:top;">:</td><td><div>2</div></td></tr><tr><td style="font-weight:bold;vertical-align:top;">instance_meta_path</td><td style="vertical-align:top;">:</td><td><div>/LM/W3SVC/2</div></td></tr><tr><td style="font-weight:bold;vertical-align:top;">instance_name</td><td style="vertical-align:top;">:</td><td><div>UNIFICACE</div></td></tr><tr><td style="font-weight:bold;vertical-align:top;">is_jython</td><td style="vertical-align:top;">:</td><td><div>False</div></td></tr><tr><td style="font-weight:bold;vertical-align:top;">is_py2</td><td style="vertical-align:top;">:</td><td><div>True</div></td></tr><tr><td style="font-weight:bold;vertical-align:top;">is_pypy</td><td style="vertical-align:top;">:</td><td><div>False</div></td></tr><tr><td style="font-weight:bold;vertical-align:top;">is_source</td><td style="vertical-align:top;">:</td><td><div>True</div></td></tr><tr><td style="font-weight:bold;vertical-align:top;">local_addr</td><td style="vertical-align:top;">:</td><td><div>10.129.65.41</div></td></tr><tr><td style="font-weight:bold;vertical-align:top;">local_hosts</td><td style="vertical-align:top;">:</td><td><div><table><tr><td><div>S03VWPR00031</div></td></tr><tr><td><div>::ffff:127.0.0.1</div></td></tr><tr><td><div>::1</div></td></tr><tr><td><div>10.129.65.41</div></td></tr><tr><td><div>s03vwpr00031.cemtl.rtss.qc.ca</div></td></tr><tr><td><div>S03VWPR00031.cemtl.rtss.qc.ca</div></td></tr><tr><td><div>127.0.0.1</div></td></tr></table></div></td></tr><tr><td style="font-weight:bold;vertical-align:top;">logon_user</td><td style="vertical-align:top;">:</td><td><div></div></td></tr><tr><td style="font-weight:bold;vertical-align:top;">path_info</td><td style="vertical-align:top;">:</td><td><div>/</div></td></tr><tr><td style="font-weight:bold;vertical-align:top;">path_translated</td><td style="vertical-align:top;">:</td><td><div>C:\\Users\\unificace\\unificace\\web2py\\handler.web2py\\</div></td></tr><tr><td style="font-weight:bold;vertical-align:top;">query_string</td><td style="vertical-align:top;">:</td><td><div></div></td></tr><tr><td style="font-weight:bold;vertical-align:top;">remote_addr</td><td style="vertical-align:top;">:</td><td><div>10.129.64.51</div></td></tr><tr><td style="font-weight:bold;vertical-align:top;">remote_host</td><td style="vertical-align:top;">:</td><td><div>10.129.64.51</div></td></tr><tr><td style="font-weight:bold;vertical-align:top;">remote_port</td><td style="vertical-align:top;">:</td><td><div>28614</div></td></tr><tr><td style="font-weight:bold;vertical-align:top;">remote_user</td><td style="vertical-align:top;">:</td><td><div></div></td></tr><tr><td style="font-weight:bold;vertical-align:top;">request_method</td><td style="vertical-align:top;">:</td><td><div>HEAD</div></td></tr><tr><td style="font-weight:bold;vertical-align:top;">request_uri</td><td style="vertical-align:top;">:</td><td><div>/</div></td></tr><tr><td style="font-weight:bold;vertical-align:top;">script_filename</td><td style="vertical-align:top;">:</td><td><div>C:\\Users\\unificace\\unificace\\web2py\\handler.web2py</div></td></tr><tr><td style="font-weight:bold;vertical-align:top;">script_name</td><td style="vertical-align:top;">:</td><td><div></div></td></tr><tr><td style="font-weight:bold;vertical-align:top;">server_name</td><td style="vertical-align:top;">:</td><td><div>10.129.65.41</div></td></tr><tr><td style="font-weight:bold;vertical-align:top;">server_port</td><td style="vertical-align:top;">:</td><td><div>443</div></td></tr><tr><td style="font-weight:bold;vertical-align:top;">server_port_secure</td><td style="vertical-align:top;">:</td><td><div>1</div></td></tr><tr><td style="font-weight:bold;vertical-align:top;">server_protocol</td><td style="vertical-align:top;">:</td><td><div>HTTP/1.1</div></td></tr><tr><td style="font-weight:bold;vertical-align:top;">server_software</td><td style="vertical-align:top;">:</td><td><div>Microsoft-IIS/8.5</div></td></tr><tr><td style="font-weight:bold;vertical-align:top;">unencoded_url</td><td style="vertical-align:top;">:</td><td><div>/</div></td></tr><tr><td style="font-weight:bold;vertical-align:top;">url</td><td style="vertical-align:top;">:</td><td><div>/handler.web2py</div></td></tr><tr><td style="font-weight:bold;vertical-align:top;">web2py_path</td><td style="vertical-align:top;">:</td><td><div>C:\\Users\\unificace\\unificace\\web2py</div></td></tr><tr><td style="font-weight:bold;vertical-align:top;">web2py_version</td><td style="vertical-align:top;">:</td><td><div>2.16.1-stable+timestamp.2017.11.14.05.54.25</div></td></tr><tr><td style="font-weight:bold;vertical-align:top;">wfastcgi.http_x_original_url</td><td style="vertical-align:top;">:</td><td><div>/</div></td></tr><tr><td style="font-weight:bold;vertical-align:top;">wfastcgi_http_x_original_url</td><td style="vertical-align:top;">:</td><td><div>/</div></td></tr><tr><td style="font-weight:bold;vertical-align:top;">wsgi.errors</td><td style="vertical-align:top;">:</td><td><div>&lt;cStringIO.StringO object at 0x0000000005B17810&gt;</div></td></tr><tr><td style="font-weight:bold;vertical-align:top;">wsgi.input</td><td style="vertical-align:top;">:</td><td><div>&lt;cStringIO.StringI object at 0x0000000002FAEBE0&gt;</div></td></tr><tr><td style="font-weight:bold;vertical-align:top;">wsgi.multiprocess</td><td style="vertical-align:top;">:</td><td><div>True</div></td></tr><tr><td style="font-weight:bold;vertical-align:top;">wsgi.multithread</td><td style="vertical-align:top;">:</td><td><div>False</div></td></tr><tr><td style="font-weight:bold;vertical-align:top;">wsgi.path_info</td><td style="vertical-align:top;">:</td><td><div>/</div></td></tr><tr><td style="font-weight:bold;vertical-align:top;">wsgi.query_string</td><td style="vertical-align:top;">:</td><td><div></div></td></tr><tr><td style="font-weight:bold;vertical-align:top;">wsgi.run_once</td><td style="vertical-align:top;">:</td><td><div>False</div></td></tr><tr><td style="font-weight:bold;vertical-align:top;">wsgi.script_name</td><td style="vertical-align:top;">:</td><td><div></div></td></tr><tr><td style="font-weight:bold;vertical-align:top;">wsgi.url_scheme</td><td style="vertical-align:top;">:</td><td><div>https</div></td></tr><tr><td style="font-weight:bold;vertical-align:top;">wsgi.version</td><td style="vertical-align:top;">:</td><td><div><table><tr><td><div>1</div></td></tr><tr><td><div>0</div></td></tr></table></div></td></tr><tr><td style="font-weight:bold;vertical-align:top;">wsgi_errors</td><td style="vertical-align:top;">:</td><td><div>&lt;cStringIO.StringO object at 0x0000000005B17810&gt;</div></td></tr><tr><td style="font-weight:bold;vertical-align:top;">wsgi_input</td><td style="vertical-align:top;">:</td><td><div>&lt;cStringIO.StringI object at 0x0000000002FAEBE0&gt;</div></td></tr><tr><td style="font-weight:bold;vertical-align:top;">wsgi_multiprocess</td><td style="vertical-align:top;">:</td><td><div>True</div></td></tr><tr><td style="font-weight:bold;vertical-align:top;">wsgi_multithread</td><td style="vertical-align:top;">:</td><td><div>False</div></td></tr><tr><td style="font-weight:bold;vertical-align:top;">wsgi_path_info</td><td style="vertical-align:top;">:</td><td><div>/</div></td></tr><tr><td style="font-weight:bold;vertical-align:top;">wsgi_query_string</td><td style="vertical-align:top;">:</td><td><div></div></td></tr><tr><td style="font-weight:bold;vertical-align:top;">wsgi_run_once</td><td style="vertical-align:top;">:</td><td><div>False</div></td></tr><tr><td style="font-weight:bold;vertical-align:top;">wsgi_script_name</td><td style="vertical-align:top;">:</td><td><div></div></td></tr><tr><td style="font-weight:bold;vertical-align:top;">wsgi_url_scheme</td><td style="vertical-align:top;">:</td><td><div>https</div></td></tr><tr><td style="font-weight:bold;vertical-align:top;">wsgi_version</td><td style="vertical-align:top;">:</td><td><div><table><tr><td><div>1</div></td></tr><tr><td><div>0</div></td></tr></table></div></td></tr></table></div></td></tr><tr><td style="font-weight:bold;vertical-align:top;">extension</td><td style="vertical-align:top;">:</td><td><div>html</div></td></tr><tr><td style="font-weight:bold;vertical-align:top;">folder</td><td style="vertical-align:top;">:</td><td><div>C:\\Users\\unificace\\unificace\\web2py\\applications\\init\\</div></td></tr><tr><td style="font-weight:bold;vertical-align:top;">function</td><td style="vertical-align:top;">:</td><td><div>index</div></td></tr><tr><td style="font-weight:bold;vertical-align:top;">global_settings</td><td style="vertical-align:top;">:</td><td><div><table><tr><td style="font-weight:bold;vertical-align:top;">app_folders</td><td style="vertical-align:top;">:</td><td><div>set([&#x27;C:\\\\Users\\\\unificace\\\\unificace\\\\web2py\\\\applications\\\\init\\\\&#x27;])</div></td></tr><tr><td style="font-weight:bold;vertical-align:top;">applications_parent</td><td style="vertical-align:top;">:</td><td><div>C:\\Users\\unificace\\unificace\\web2py</div></td></tr><tr><td style="font-weight:bold;vertical-align:top;">db_sessions</td><td style="vertical-align:top;">:</td><td><div>set([])</div></td></tr><tr><td style="font-weight:bold;vertical-align:top;">debugging</td><td style="vertical-align:top;">:</td><td><div>False</div></td></tr><tr><td style="font-weight:bold;vertical-align:top;">gluon_parent</td><td style="vertical-align:top;">:</td><td><div>C:\\Users\\unificace\\unificace\\web2py</div></td></tr><tr><td style="font-weight:bold;vertical-align:top;">is_jython</td><td style="vertical-align:top;">:</td><td><div>False</div></td></tr><tr><td style="font-weight:bold;vertical-align:top;">is_py2</td><td style="vertical-align:top;">:</td><td><div>True</div></td></tr><tr><td style="font-weight:bold;vertical-align:top;">is_pypy</td><td style="vertical-align:top;">:</td><td><div>False</div></td></tr><tr><td style="font-weight:bold;vertical-align:top;">is_source</td><td style="vertical-align:top;">:</td><td><div>True</div></td></tr><tr><td style="font-weight:bold;vertical-align:top;">local_hosts</td><td style="vertical-align:top;">:</td><td><div><table><tr><td><div>S03VWPR00031</div></td></tr><tr><td><div>::ffff:127.0.0.1</div></td></tr><tr><td><div>::1</div></td></tr><tr><td><div>10.129.65.41</div></td></tr><tr><td><div>s03vwpr00031.cemtl.rtss.qc.ca</div></td></tr><tr><td><div>S03VWPR00031.cemtl.rtss.qc.ca</div></td></tr><tr><td><div>127.0.0.1</div></td></tr></table></div></td></tr><tr><td style="font-weight:bold;vertical-align:top;">web2py_version</td><td style="vertical-align:top;">:</td><td><div>2.16.1-stable+timestamp.2017.11.14.05.54.25</div></td></tr></table></div></td></tr><tr><td style="font-weight:bold;vertical-align:top;">is_https</td><td style="vertical-align:top;">:</td><td><div>True</div></td></tr><tr><td style="font-weight:bold;vertical-align:top;">is_local</td><td style="vertical-align:top;">:</td><td><div>False</div></td></tr><tr><td style="font-weight:bold;vertical-align:top;">is_restful</td><td style="vertical-align:top;">:</td><td><div>False</div></td></tr><tr><td style="font-weight:bold;vertical-align:top;">is_scheduler</td><td style="vertical-align:top;">:</td><td><div>False</div></td></tr><tr><td style="font-weight:bold;vertical-align:top;">is_shell</td><td style="vertical-align:top;">:</td><td><div>False</div></td></tr><tr><td style="font-weight:bold;vertical-align:top;">now</td><td style="vertical-align:top;">:</td><td><div>datetime.datetime(2023, 7, 11, 4, 8, 17, 719000)</div></td></tr><tr><td style="font-weight:bold;vertical-align:top;">raw_args</td><td style="vertical-align:top;">:</td><td><div></div></td></tr><tr><td style="font-weight:bold;vertical-align:top;">raw_extension</td><td style="vertical-align:top;">:</td><td><div>None</div></td></tr><tr><td style="font-weight:bold;vertical-align:top;">url</td><td style="vertical-align:top;">:</td><td><div>/</div></td></tr><tr><td style="font-weight:bold;vertical-align:top;">utcnow</td><td style="vertical-align:top;">:</td><td><div>datetime.datetime(2023, 7, 11, 8, 8, 17, 719000)</div></td></tr><tr><td style="font-weight:bold;vertical-align:top;">wsgi</td><td style="vertical-align:top;">:</td><td><div>&lt;gluon.main.LazyWSGI object at 0x0000000005AFB6D8&gt;</div></td></tr></table></div>'
tRp66
sS'frames'
p67
(lp68
(dp69
S'file'
p70
S'C:\\Users\\unificace\\unificace\\web2py\\gluon\\restricted.py'
p71
sS'dump'
p72
(dp73
S'environment'
p74
S"{'A': <class 'gluon.html.A'>, 'ANY_OF': <class 'gluon.validators.ANY_OF'>, 'ASSIGNJS': <function ASSIGNJS>, 'AppConfig': <function AppConfig>, 'Auth': <class 'gluon.tools.Auth'>, 'B': <class 'gluon.html.B'>, 'BEAUTIFY': <class 'gluon.html.BEAUTIFY'>, 'BODY': <class 'gluon.html.BODY'>, 'BR': <class 'gluon.html.BR'>, 'BUTTON': <class 'gluon.html.BUTTON'>, ...}"
p75
sS'ccode'
p76
S'<code object <module> at 0000000002C0D730, file ...\\web2py\\applications\\init\\models\\db.py", line 14>'
p77
ssS'lnum'
p78
I219
sS'lines'
p79
(dp80
I214
S'    if environment is None:'
p81
sI215
S'        environment = {}'
p82
sI216
S"    environment['__file__'] = layer"
p83
sI217
S"    environment['__name__'] = '__restricted__'"
p84
sI218
S'    try:'
p85
sI219
S'        exec(ccode, environment)'
p86
sI220
S'    except HTTP:'
p87
sI221
S'        raise'
p88
sI222
S'    except RestrictedError:'
p89
sI223
S'        # do not encapsulate (obfuscate) the original RestrictedError'
p90
ssS'call'
p91
S'(ccode=<code object <module> at 0000000002C0D730, file ...\\web2py\\applications\\init\\models\\db.py", line 14>, environment={\'A\': <class \'gluon.html.A\'>, \'ANY_OF\': <class \'gluon.validators.ANY_OF\'>, \'ASSIGNJS\': <function ASSIGNJS>, \'AppConfig\': <function AppConfig>, \'Auth\': <class \'gluon.tools.Auth\'>, \'B\': <class \'gluon.html.B\'>, \'BEAUTIFY\': <class \'gluon.html.BEAUTIFY\'>, \'BODY\': <class \'gluon.html.BODY\'>, \'BR\': <class \'gluon.html.BR\'>, \'BUTTON\': <class \'gluon.html.BUTTON\'>, ...}, layer=r\'C:\\Users\\unificace\\unificace\\web2py\\applications\\init\\models\\db.py\', scode=<code object <module> at 0000000002C0D730, file ...\\web2py\\applications\\init\\models\\db.py", line 14>)'
p92
sS'func'
p93
S'restricted'
p94
sa(dp95
g70
S'C:\\Users\\unificace\\unificace\\web2py\\applications\\init\\models\\db.py'
p96
sg72
(dp97
S'default'
p98
S'undefined'
p99
sS'Field'
p100
S"<class 'pydal.objects.Field'>"
p101
sS'datetime.date'
p102
S"<type 'datetime.date'>"
p103
sS'datetime'
p104
S"<module 'datetime' (built-in)>"
p105
ssg78
I465
sg79
(dp106
I460
S"                Field('NumCpu'),"
p107
sI461
S"                Field('CpuUsageMhz'),"
p108
sI462
S"                Field('CpuTotalMhz'),"
p109
sI463
S"                Field('MemoryUsageGB'),"
p110
sI464
S"                Field('MemoryTotalGB'),"
p111
sI465
S"                Field('last_sync','date',default=datetime.date(2000,1,1)),"
p112
sI466
S'                )'
p113
sI467
S''
sI468
S"db.define_table('servers',"
p114
sI469
S"                Field('DNSHostName'),"
p115
ssg91
S'()'
p116
sg93
S'<module>'
p117
sa(dp118
g70
S'C:\\Users\\unificace\\unificace\\web2py\\gluon\\packages\\dal\\pydal\\base.py'
p119
sg72
(dp120
S'fields'
p121
S'(<pydal.objects.Field object>, <pydal.objects.Field object>, <pydal.objects.Field object>, <pydal.objects.Field object>, <pydal.objects.Field object>, <pydal.objects.Field object>, <pydal.objects.Field object>, <pydal.objects.Field object>, <pydal.objects.Field object>, <pydal.objects.Field object>, <pydal.objects.Field object>)'
p122
sS'self'
p123
S'<DAL uri="mssql4:******@S03VWPR00004.cemtl.rtss.qc.ca/unificace">'
p124
sS'args'
p125
S'{}'
p126
sS'tablename'
p127
S"'vcenters_host'"
p128
sS'table'
p129
g99
sS'self.lazy_define_table'
p130
S'<bound method DAL.lazy_define_table of <DAL uri=...******@S03VWPR00004.cemtl.rtss.qc.ca/unificace">>'
p131
ssg78
I586
sg79
(dp132
I581
S'                                  (tablename, invalid_args))'
p133
sI582
S'        if self._lazy_tables and tablename not in self._LAZY_TABLES:'
p134
sI583
S'            self._LAZY_TABLES[tablename] = (tablename, fields, args)'
p135
sI584
S'            table = None'
p136
sI585
S'        else:'
p137
sI586
S'            table = self.lazy_define_table(tablename, *fields, **args)'
p138
sI587
S'        if tablename not in self.tables:'
p139
sI588
S'            self.tables.append(tablename)'
p140
sI589
S'        return table'
p141
sI590
S''
ssg91
S'(self=<DAL uri="mssql4:******@S03VWPR00004.cemtl.rtss.qc.ca/unificace">, tablename=\'vcenters_host\', *fields=(<pydal.objects.Field object>, <pydal.objects.Field object>, <pydal.objects.Field object>, <pydal.objects.Field object>, <pydal.objects.Field object>, <pydal.objects.Field object>, <pydal.objects.Field object>, <pydal.objects.Field object>, <pydal.objects.Field object>, <pydal.objects.Field object>, <pydal.objects.Field object>), **args={})'
p142
sg93
S'define_table'
p143
sa(dp144
g70
S'C:\\Users\\unificace\\unificace\\web2py\\gluon\\packages\\dal\\pydal\\base.py'
p145
sg72
(dp146
S'polymodel'
p147
S'None'
p148
ssg78
I620
sg79
(dp149
I615
S'            try:'
p150
sI616
S'                GLOBAL_LOCKER.acquire()'
p151
sI617
S'                self._adapter.create_table('
p152
sI618
S'                    table, migrate=migrate,'
p153
sI619
S'                    fake_migrate=fake_migrate,'
p154
sI620
S'                    polymodel=polymodel)'
p155
sI621
S'            finally:'
p156
sI622
S'                GLOBAL_LOCKER.release()'
p157
sI623
S'        else:'
p158
sI624
S'            table._dbt = None'
p159
ssg91
S'(self=<DAL uri="mssql4:******@S03VWPR00004.cemtl.rtss.qc.ca/unificace">, tablename=\'vcenters_host\', *fields=(<pydal.objects.Field object>, <pydal.objects.Field object>, <pydal.objects.Field object>, <pydal.objects.Field object>, <pydal.objects.Field object>, <pydal.objects.Field object>, <pydal.objects.Field object>, <pydal.objects.Field object>, <pydal.objects.Field object>, <pydal.objects.Field object>, <pydal.objects.Field object>), **args={})'
p160
sg93
S'lazy_define_table'
p161
sa(dp162
g70
S'C:\\Users\\unificace\\unificace\\web2py\\gluon\\packages\\dal\\pydal\\adapters\\base.py'
p163
sg72
(dp164
S'self'
p165
S'<pydal.adapters.mssql.MSSQL4 object>'
p166
sS'args'
p167
S'(<Table vcenters_host (id, name, versions, PowerS...talMhz, MemoryUsageGB, MemoryTotalGB, last_sync)>,)'
p168
sS'self.migrator'
p169
S'<pydal.migrator.Migrator object>'
p170
sS'self.migrator.create_table'
p171
S'<bound method Migrator.create_table of <pydal.migrator.Migrator object>>'
p172
sS'kwargs'
p173
S"{'fake_migrate': False, 'migrate': True, 'polymodel': None}"
p174
ssg78
I797
sg79
(dp175
I800
S'        super(SQLAdapter, self)._drop_table_cleanup(table)'
p176
sI801
S'        if table._dbt:'
p177
sI792
S''
sI793
S'    def bulk_insert(self, table, items):'
p178
sI794
S'        return [self.insert(table, item) for item in items]'
p179
sI795
S''
sI796
S'    def create_table(self, *args, **kwargs):'
p180
sI797
S'        return self.migrator.create_table(*args, **kwargs)'
p181
sI798
S''
sI799
S'    def _drop_table_cleanup(self, table):'
p182
ssg91
S"(self=<pydal.adapters.mssql.MSSQL4 object>, *args=(<Table vcenters_host (id, name, versions, PowerS...talMhz, MemoryUsageGB, MemoryTotalGB, last_sync)>,), **kwargs={'fake_migrate': False, 'migrate': True, 'polymodel': None})"
p183
sg93
S'create_table'
p184
sa(dp185
g70
S'C:\\Users\\unificace\\unificace\\web2py\\gluon\\packages\\dal\\pydal\\migrator.py'
p186
sg72
(dp187
S'query'
p188
S'\'CREATE TABLE "vcenters_host"(\\n    "id" INT IDENT..." VARCHAR(512) NULL,\\n    "last_sync" DATE NULL\\n);\''
p189
sS'self'
p190
S'<pydal.migrator.Migrator object>'
p191
sS'self.adapter'
p192
S'<pydal.adapters.mssql.MSSQL4 object>'
p193
sS'self.adapter.create_sequence_and_triggers'
p194
S'<bound method MSSQL4.create_sequence_and_triggers of <pydal.adapters.mssql.MSSQL4 object>>'
p195
sS'table'
p196
S'<Table vcenters_host (id, name, versions, PowerS...talMhz, MemoryUsageGB, MemoryTotalGB, last_sync)>'
p197
ssg78
I277
sg79
(dp198
I272
S'            if table._dbt:'
p199
sI273
S"                self.log('timestamp: %s\\n%s\\n'"
p200
sI274
S'                         % (datetime.datetime.today().isoformat(),'
p201
sI275
S'                            query), table)'
p202
sI276
S'            if not fake_migrate:'
p203
sI277
S'                self.adapter.create_sequence_and_triggers(query, table)'
p204
sI278
S'                db.commit()'
p205
sI279
S'                # Postgres geom fields are added now,'
p206
sI280
S'                # after the table has been created'
p207
sI281
S'                for query in postcreation_fields:'
p208
ssg91
S'(self=<pydal.migrator.Migrator object>, table=<Table vcenters_host (id, name, versions, PowerS...talMhz, MemoryUsageGB, MemoryTotalGB, last_sync)>, migrate=True, fake_migrate=False, polymodel=None)'
p209
sg93
g184
sa(dp210
g70
S'C:\\Users\\unificace\\unificace\\web2py\\gluon\\packages\\dal\\pydal\\adapters\\base.py'
p211
sg72
(dp212
S'query'
p213
S'\'CREATE TABLE "vcenters_host"(\\n    "id" INT IDENT..." VARCHAR(512) NULL,\\n    "last_sync" DATE NULL\\n);\''
p214
sS'self'
p215
S'<pydal.adapters.mssql.MSSQL4 object>'
p216
sS'self.execute'
p217
S'<bound method MSSQL4.wrap of <pydal.adapters.mssql.MSSQL4 object>>'
p218
ssg78
I880
sg79
(dp219
I875
S'    @with_connection'
p220
sI876
S'    def rollback_prepared(self, key):'
p221
sI877
S'        self.connection.rollback()'
p222
sI878
S''
sI879
S'    def create_sequence_and_triggers(self, query, table, **args):'
p223
sI880
S'        self.execute(query)'
p224
sI881
S''
sI882
S'    def sqlsafe_table(self, tablename, original_tablename=None):'
p225
sI883
S'        if original_tablename is not None:'
p226
sI884
S'            return self.dialect.alias(original_tablename, tablename)'
p227
ssg91
S'(self=<pydal.adapters.mssql.MSSQL4 object>, query=\'CREATE TABLE "vcenters_host"(\\n    "id" INT IDENT..." VARCHAR(512) NULL,\\n    "last_sync" DATE NULL\\n);\', table=<Table vcenters_host (id, name, versions, PowerS...talMhz, MemoryUsageGB, MemoryTotalGB, last_sync)>, **args={})'
p228
sg93
S'create_sequence_and_triggers'
p229
sa(dp230
g70
S'C:\\Users\\unificace\\unificace\\web2py\\gluon\\packages\\dal\\pydal\\adapters\\__init__.py'
p231
sg72
(dp232
S'kwargs'
p233
g126
sS'args'
p234
S'(<pydal.adapters.mssql.MSSQL4 object>, \'CREATE TABLE "vcenters_host"(\\n    "id" INT IDENT..." VARCHAR(512) NULL,\\n    "last_sync" DATE NULL\\n);\')'
p235
sS'f'
S'<function execute>'
p236
ssg78
I67
sg79
(dp237
I64
S'            if len(args) > 1:'
p238
sI65
S'                raise ValueError(args[1])'
p239
sI66
S"            raise RuntimeError('no connection available')"
p240
sI67
S'        return f(*args, **kwargs)'
p241
sI68
S'    return wrap'
p242
sI69
S''
sI70
S''
sI71
S'from .base import SQLAdapter, NoSQLAdapter'
p243
sI62
S'    def wrap(*args, **kwargs):'
p244
sI63
S'        if not args[0].connection:'
p245
ssg91
S'(*args=(<pydal.adapters.mssql.MSSQL4 object>, \'CREATE TABLE "vcenters_host"(\\n    "id" INT IDENT..." VARCHAR(512) NULL,\\n    "last_sync" DATE NULL\\n);\'), **kwargs={})'
p246
sg93
S'wrap'
p247
sa(dp248
g70
S'C:\\Users\\unificace\\unificace\\web2py\\gluon\\packages\\dal\\pydal\\adapters\\base.py'
p249
sg72
(dp250
S'rv'
p251
g99
sS'self'
p252
S'<pydal.adapters.mssql.MSSQL4 object>'
p253
sS'args'
p254
S'(\'CREATE TABLE "vcenters_host"(\\n    "id" INT IDENT..." VARCHAR(512) NULL,\\n    "last_sync" DATE NULL\\n);\',)'
p255
sS'self.cursor'
p256
S'<gluon.contrib.pypyodbc.Cursor instance>'
p257
sS'command'
p258
S'\'CREATE TABLE "vcenters_host"(\\n    "id" INT IDENT..." VARCHAR(512) NULL,\\n    "last_sync" DATE NULL\\n);\''
p259
sS'self.cursor.execute'
p260
S'<bound method Cursor.execute of <gluon.contrib.pypyodbc.Cursor instance>>'
p261
sS'kwargs'
p262
g126
ssg78
I412
sg79
(dp263
I416
S''
sI407
S'    def execute(self, *args, **kwargs):'
p264
sI408
S'        command = self.filter_sql_command(args[0])'
p265
sI409
S'        handlers = self._build_handlers_for_execution()'
p266
sI410
S'        for handler in handlers:'
p267
sI411
S'            handler.before_execute(command)'
p268
sI412
S'        rv = self.cursor.execute(command, *args[1:], **kwargs)'
p269
sI413
S'        for handler in handlers:'
p270
sI414
S'            handler.after_execute(command)'
p271
sI415
S'        return rv'
p272
ssg91
S'(self=<pydal.adapters.mssql.MSSQL4 object>, *args=(\'CREATE TABLE "vcenters_host"(\\n    "id" INT IDENT..." VARCHAR(512) NULL,\\n    "last_sync" DATE NULL\\n);\',), **kwargs={})'
p273
sg93
S'execute'
p274
sa(dp275
g70
S'C:\\Users\\unificace\\unificace\\web2py\\gluon\\contrib\\pypyodbc.py'
p276
sg72
(dp277
S'query_string'
p278
S'\'CREATE TABLE "vcenters_host"(\\n    "id" INT IDENT..." VARCHAR(512) NULL,\\n    "last_sync" DATE NULL\\n);\''
p279
sS'self'
p280
S'<gluon.contrib.pypyodbc.Cursor instance>'
p281
sS'self.execdirect'
p282
S'<bound method Cursor.execdirect of <gluon.contrib.pypyodbc.Cursor instance>>'
p283
ssg78
I1605
sg79
(dp284
I1600
S'                self._NumOfRows()'
p285
sI1601
S'                self._UpdateDesc()'
p286
sI1602
S'                #self._BindCols()'
p287
sI1603
S''
sI1604
S'        else:'
p288
sI1605
S'            self.execdirect(query_string)'
p289
sI1606
S'        return self'
p290
sI1607
S''
sI1608
S''
sI1609
S'    def _SQLExecute(self):'
p291
ssg91
S'(self=<gluon.contrib.pypyodbc.Cursor instance>, query_string=\'CREATE TABLE "vcenters_host"(\\n    "id" INT IDENT..." VARCHAR(512) NULL,\\n    "last_sync" DATE NULL\\n);\', params=None, many_mode=False, call_mode=False)'
p292
sg93
g274
sa(dp293
g70
S'C:\\Users\\unificace\\unificace\\web2py\\gluon\\contrib\\pypyodbc.py'
p294
sg72
(dp295
S'self'
p296
S'<gluon.contrib.pypyodbc.Cursor instance>'
p297
sS'global check_success'
p298
S'<function check_success>'
p299
sS'ret'
p300
S'-1'
p301
ssg78
I1631
sg79
(dp302
I1632
S'        self._NumOfRows()'
p303
sI1633
S'        self._UpdateDesc()'
p304
sI1634
S'        #self._BindCols()'
p305
sI1635
S'        return self'
p306
sI1626
S'            c_query_string = wchar_pointer(UCS_buf(query_string))'
p307
sI1627
S'            ret = ODBC_API.SQLExecDirectW(self.stmt_h, c_query_string, len(query_string))'
p308
sI1628
S'        else:'
p309
sI1629
S'            c_query_string = ctypes.c_char_p(query_string)'
p310
sI1630
S'            ret = ODBC_API.SQLExecDirect(self.stmt_h, c_query_string, len(query_string))'
p311
sI1631
S'        check_success(self, ret)'
p312
ssg91
S'(self=<gluon.contrib.pypyodbc.Cursor instance>, query_string=\'CREATE TABLE "vcenters_host"(\\n    "id" INT IDENT..." VARCHAR(512) NULL,\\n    "last_sync" DATE NULL\\n);\')'
p313
sg93
S'execdirect'
p314
sa(dp315
g70
S'C:\\Users\\unificace\\unificace\\web2py\\gluon\\contrib\\pypyodbc.py'
p316
sg72
(dp317
S'ODBC_obj'
p318
S'<gluon.contrib.pypyodbc.Cursor instance>'
p319
sS'global ctrl_err'
p320
S'<function ctrl_err>'
p321
sS'ret'
p322
S'-1'
p323
sS'ODBC_obj.stmt_h'
p324
S'c_void_p(24438944L)'
p325
sS'global SQL_HANDLE_STMT'
p326
S'3'
sS'ODBC_obj.ansi'
p327
S'False'
p328
ssg78
I986
sg79
(dp329
I981
S''
sI982
S'def check_success(ODBC_obj, ret):'
p330
sI983
S'    """ Validate return value, if not success, raise exceptions based on the handle """'
p331
sI984
S'    if ret not in (SQL_SUCCESS, SQL_SUCCESS_WITH_INFO, SQL_NO_DATA):'
p332
sI985
S'        if isinstance(ODBC_obj, Cursor):'
p333
sI986
S'            ctrl_err(SQL_HANDLE_STMT, ODBC_obj.stmt_h, ret, ODBC_obj.ansi)'
p334
sI987
S'        elif isinstance(ODBC_obj, Connection):'
p335
sI988
S'            ctrl_err(SQL_HANDLE_DBC, ODBC_obj.dbc_h, ret, ODBC_obj.ansi)'
p336
sI989
S'        else:'
p337
sI990
S'            ctrl_err(SQL_HANDLE_ENV, ODBC_obj, ret, False)'
p338
ssg91
S'(ODBC_obj=<gluon.contrib.pypyodbc.Cursor instance>, ret=-1)'
p339
sg93
S'check_success'
p340
sa(dp341
g70
S'C:\\Users\\unificace\\unificace\\web2py\\gluon\\contrib\\pypyodbc.py'
p342
sg72
(dp343
S'state'
p344
S"u'42S01'"
p345
sS'err_text'
p346
S'u"[42S01] [Microsoft][ODBC SQL Server Driver][SQ...an object named \'vcenters_host\' in the database."'
p347
sS'global ProgrammingError'
p348
S"<class 'gluon.contrib.pypyodbc.ProgrammingError'>"
p349
ssg78
I954
sg79
(dp350
I949
S'            #No more data, I can raise'
p351
sI950
S'            #print(err_list[0][1])'
p352
sI951
S'            state = err_list[0][0]'
p353
sI952
S"            err_text = raw_s('[')+state+raw_s('] ')+err_list[0][1]"
p354
sI953
S"            if state[:2] in (raw_s('24'),raw_s('25'),raw_s('42')):"
p355
sI954
S'                raise ProgrammingError(state,err_text)'
p356
sI955
S"            elif state[:2] in (raw_s('22')):"
p357
sI956
S'                raise DataError(state,err_text)'
p358
sI957
S"            elif state[:2] in (raw_s('23')) or state == raw_s('40002'):"
p359
sI958
S'                raise IntegrityError(state,err_text)'
p360
ssg91
S'(ht=3, h=c_void_p(24438944L), val_ret=-1, ansi=False)'
p361
sg93
S'ctrl_err'
p362
sasS'pyver'
p363
S'Python 2.7.13: c:\\python27\\python.exe (prefix: c:\\python27)'
p364
sS'session'
p365
g65
(S's\x1a\x00\x00\x00<div><table></table></div>'
tRp366
sS'etype'
p367
S"<class 'gluon.contrib.pypyodbc.ProgrammingError'>"
p368
sS'date'
p369
S'Tue Jul 11 04:08:30 2023'
p370
sS'response'
p371
g65
(S's!\x16\x00\x00<div><table><tr><td style="font-weight:bold;vertical-align:top;">body</td><td style="vertical-align:top;">:</td><td><div>&lt;cStringIO.StringO object at 0x0000000005829880&gt;</div></td></tr><tr><td style="font-weight:bold;vertical-align:top;">cookies</td><td style="vertical-align:top;">:</td><td><div><table><tr><td style="font-weight:bold;vertical-align:top;">session_id_init</td><td style="vertical-align:top;">:</td><td><div>10.129.64.51-c24ca825-5c08-4a1f-a89f-3647f5ae40fb<table><tr><td style="font-weight:bold;vertical-align:top;">comment</td><td style="vertical-align:top;">:</td><td><div></div></td></tr><tr><td style="font-weight:bold;vertical-align:top;">domain</td><td style="vertical-align:top;">:</td><td><div></div></td></tr><tr><td style="font-weight:bold;vertical-align:top;">expires</td><td style="vertical-align:top;">:</td><td><div></div></td></tr><tr><td style="font-weight:bold;vertical-align:top;">httponly</td><td style="vertical-align:top;">:</td><td><div></div></td></tr><tr><td style="font-weight:bold;vertical-align:top;">max-age</td><td style="vertical-align:top;">:</td><td><div></div></td></tr><tr><td style="font-weight:bold;vertical-align:top;">path</td><td style="vertical-align:top;">:</td><td><div>/</div></td></tr><tr><td style="font-weight:bold;vertical-align:top;">secure</td><td style="vertical-align:top;">:</td><td><div></div></td></tr><tr><td style="font-weight:bold;vertical-align:top;">version</td><td style="vertical-align:top;">:</td><td><div></div></td></tr></table></div></td></tr></table></div></td></tr><tr><td style="font-weight:bold;vertical-align:top;">delimiters</td><td style="vertical-align:top;">:</td><td><div><table><tr><td><div>{{</div></td></tr><tr><td><div>}}</div></td></tr></table></div></td></tr><tr><td style="font-weight:bold;vertical-align:top;">files</td><td style="vertical-align:top;">:</td><td><div><table></table></div></td></tr><tr><td style="font-weight:bold;vertical-align:top;">flash</td><td style="vertical-align:top;">:</td><td><div></div></td></tr><tr><td style="font-weight:bold;vertical-align:top;">form_label_separator</td><td style="vertical-align:top;">:</td><td><div></div></td></tr><tr><td style="font-weight:bold;vertical-align:top;">formstyle</td><td style="vertical-align:top;">:</td><td><div>bootstrap3_inline</div></td></tr><tr><td style="font-weight:bold;vertical-align:top;">generic_patterns</td><td style="vertical-align:top;">:</td><td><div><table></table></div></td></tr><tr><td style="font-weight:bold;vertical-align:top;">headers</td><td style="vertical-align:top;">:</td><td><div><table><tr><td style="font-weight:bold;vertical-align:top;">X-Powered-By</td><td style="vertical-align:top;">:</td><td><div>web2py</div></td></tr></table></div></td></tr><tr><td style="font-weight:bold;vertical-align:top;">menu</td><td style="vertical-align:top;">:</td><td><div><table></table></div></td></tr><tr><td style="font-weight:bold;vertical-align:top;">meta</td><td style="vertical-align:top;">:</td><td><div><table></table></div></td></tr><tr><td style="font-weight:bold;vertical-align:top;">models_to_run</td><td style="vertical-align:top;">:</td><td><div><table><tr><td><div>^\\w+\\.py$</div></td></tr><tr><td><div>^default/\\w+\\.py$</div></td></tr><tr><td><div>^default/index/\\w+\\.py$</div></td></tr></table></div></td></tr><tr><td style="font-weight:bold;vertical-align:top;">postprocessing</td><td style="vertical-align:top;">:</td><td><div><table></table></div></td></tr><tr><td style="font-weight:bold;vertical-align:top;">session_client</td><td style="vertical-align:top;">:</td><td><div>10.129.64.51</div></td></tr><tr><td style="font-weight:bold;vertical-align:top;">session_cookie_compression_level</td><td style="vertical-align:top;">:</td><td><div>None</div></td></tr><tr><td style="font-weight:bold;vertical-align:top;">session_cookie_expires</td><td style="vertical-align:top;">:</td><td><div>None</div></td></tr><tr><td style="font-weight:bold;vertical-align:top;">session_data_name</td><td style="vertical-align:top;">:</td><td><div>session_data_init</div></td></tr><tr><td style="font-weight:bold;vertical-align:top;">session_file</td><td style="vertical-align:top;">:</td><td><div>None</div></td></tr><tr><td style="font-weight:bold;vertical-align:top;">session_filename</td><td style="vertical-align:top;">:</td><td><div>C:\\Users\\unificace\\unificace\\web2py\\applications\\init\\sessions\\10.129.64.51-c24ca825-5c08-4a1f-a89f-3647f5ae40fb</div></td></tr><tr><td style="font-weight:bold;vertical-align:top;">session_hash</td><td style="vertical-align:top;">:</td><td><div>c0762cbf4baf7f9af97c051e7fcb8083</div></td></tr><tr><td style="font-weight:bold;vertical-align:top;">session_id</td><td style="vertical-align:top;">:</td><td><div>10.129.64.51-c24ca825-5c08-4a1f-a89f-3647f5ae40fb</div></td></tr><tr><td style="font-weight:bold;vertical-align:top;">session_id_name</td><td style="vertical-align:top;">:</td><td><div>session_id_init</div></td></tr><tr><td style="font-weight:bold;vertical-align:top;">session_masterapp</td><td style="vertical-align:top;">:</td><td><div>init</div></td></tr><tr><td style="font-weight:bold;vertical-align:top;">session_new</td><td style="vertical-align:top;">:</td><td><div>True</div></td></tr><tr><td style="font-weight:bold;vertical-align:top;">session_storage_type</td><td style="vertical-align:top;">:</td><td><div>file</div></td></tr><tr><td style="font-weight:bold;vertical-align:top;">status</td><td style="vertical-align:top;">:</td><td><div>200</div></td></tr><tr><td style="font-weight:bold;vertical-align:top;">view</td><td style="vertical-align:top;">:</td><td><div>default/index.html</div></td></tr></table></div>'
tRp372
sS'locals'
p373
(dp374
S'err_list'
p375
S'[(u\'42S01\', u"[Microsoft][ODBC SQL Server Driver][SQL Server...an object named \'vcenters_host\' in the database.", 2714)]'
p376
sS'h'
S'c_void_p(24438944L)'
p377
sS'raw_s'
p378
S"<type 'unicode'>"
p379
sS'ht'
p380
S'3'
sS'Buffer_len'
p381
S'c_short(0)'
p382
sS'ansi'
p383
g328
sS'state'
p384
S"u'42S01'"
p385
sS'ODBC_func'
p386
S'<_FuncPtr object>'
p387
sS'ret'
p388
S'100'
p389
sS'Message'
p390
S'<ctypes.c_wchar_Array_4096 object>'
p391
sS'val_ret'
p392
S'-1'
p393
sS'number_errors'
p394
S'2'
sS'NativeError'
p395
S'c_long(2714)'
p396
sS'err_text'
p397
S'u"[42S01] [Microsoft][ODBC SQL Server Driver][SQ...an object named \'vcenters_host\' in the database."'
p398
sssS'traceback'
p399
S'Traceback (most recent call last):\n  File ".\\gluon\\restricted.py", line 219, in restricted\n    exec(ccode, environment)\n  File "C:\\Users\\unificace\\unificace\\web2py\\applications\\init\\models\\db.py", line 465, in <module>\n    Field(\'last_sync\',\'date\',default=datetime.date(2000,1,1)),\n  File "C:\\Users\\unificace\\unificace\\web2py\\gluon\\packages\\dal\\pydal\\base.py", line 586, in define_table\n    table = self.lazy_define_table(tablename, *fields, **args)\n  File "C:\\Users\\unificace\\unificace\\web2py\\gluon\\packages\\dal\\pydal\\base.py", line 620, in lazy_define_table\n    polymodel=polymodel)\n  File "C:\\Users\\unificace\\unificace\\web2py\\gluon\\packages\\dal\\pydal\\adapters\\base.py", line 797, in create_table\n    return self.migrator.create_table(*args, **kwargs)\n  File "C:\\Users\\unificace\\unificace\\web2py\\gluon\\packages\\dal\\pydal\\migrator.py", line 277, in create_table\n    self.adapter.create_sequence_and_triggers(query, table)\n  File "C:\\Users\\unificace\\unificace\\web2py\\gluon\\packages\\dal\\pydal\\adapters\\base.py", line 880, in create_sequence_and_triggers\n    self.execute(query)\n  File "C:\\Users\\unificace\\unificace\\web2py\\gluon\\packages\\dal\\pydal\\adapters\\__init__.py", line 67, in wrap\n    return f(*args, **kwargs)\n  File "C:\\Users\\unificace\\unificace\\web2py\\gluon\\packages\\dal\\pydal\\adapters\\base.py", line 412, in execute\n    rv = self.cursor.execute(command, *args[1:], **kwargs)\n  File ".\\gluon\\contrib\\pypyodbc.py", line 1605, in execute\n    self.execdirect(query_string)\n  File ".\\gluon\\contrib\\pypyodbc.py", line 1631, in execdirect\n    check_success(self, ret)\n  File ".\\gluon\\contrib\\pypyodbc.py", line 986, in check_success\n    ctrl_err(SQL_HANDLE_STMT, ODBC_obj.stmt_h, ret, ODBC_obj.ansi)\n  File ".\\gluon\\contrib\\pypyodbc.py", line 954, in ctrl_err\n    raise ProgrammingError(state,err_text)\nProgrammingError: (u\'42S01\', u"[42S01] [Microsoft][ODBC SQL Server Driver][SQL Server]There is already an object named \'vcenters_host\' in the database.")\n'
p400
s.