(dp1
S'output'
p2
S''
sS'layer'
p3
S'Framework'
p4
sS'code'
p5
S''
sS'snapshot'
p6
(dp7
S'exception'
p8
(dp9
S'__getslice__'
p10
S"<method-wrapper '__getslice__' of exceptions.MemoryError object>"
p11
sS'__str__'
p12
S"<method-wrapper '__str__' of exceptions.MemoryError object>"
p13
sS'__reduce__'
p14
S'<built-in method __reduce__ of exceptions.MemoryError object>'
p15
sS'__dict__'
p16
S'{}'
p17
sS'message'
p18
S"''"
p19
sS'__sizeof__'
p20
S'<built-in method __sizeof__ of exceptions.MemoryError object>'
p21
sS'__init__'
p22
S"<method-wrapper '__init__' of exceptions.MemoryError object>"
p23
sS'__setattr__'
p24
S"<method-wrapper '__setattr__' of exceptions.MemoryError object>"
p25
sS'__reduce_ex__'
p26
S'<built-in method __reduce_ex__ of exceptions.MemoryError object>'
p27
sS'__new__'
p28
S'<built-in method __new__ of type object>'
p29
sS'__format__'
p30
S'<built-in method __format__ of exceptions.MemoryError object>'
p31
sS'__class__'
p32
S"<type 'exceptions.MemoryError'>"
p33
sS'__doc__'
p34
S"'Out of memory.'"
p35
sS'__getitem__'
p36
S"<method-wrapper '__getitem__' of exceptions.MemoryError object>"
p37
sS'__setstate__'
p38
S'<built-in method __setstate__ of exceptions.MemoryError object>'
p39
sS'__getattribute__'
p40
S"<method-wrapper '__getattribute__' of exceptions.MemoryError object>"
p41
sS'args'
p42
S'()'
p43
sS'__subclasshook__'
p44
S'<built-in method __subclasshook__ of type object>'
p45
sS'__unicode__'
p46
S'<built-in method __unicode__ of exceptions.MemoryError object>'
p47
sS'__delattr__'
p48
S"<method-wrapper '__delattr__' of exceptions.MemoryError object>"
p49
sS'__repr__'
p50
S"<method-wrapper '__repr__' of exceptions.MemoryError object>"
p51
sS'__hash__'
p52
S"<method-wrapper '__hash__' of exceptions.MemoryError object>"
p53
ssS'evalue'
p54
S''
sS'request'
p55
cgluon.html
XML_unpickle
p56
(S's\xe5$\x00\x00<div>&lt;Storage {&#x27;_vars&#x27;: None, &#x27;function&#x27;: &#x27;index&#x27;, &#x27;cookies&#x27;: &lt;SimpleCookie: &gt;, &#x27;_uuid&#x27;: None, &#x27;global_settings&#x27;: &lt;Storage {&#x27;debugging&#x27;: False, &#x27;is_pypy&#x27;: False, &#x27;local_hosts&#x27;: [&#x27;S03VWPR00031&#x27;, &#x27;::ffff:127.0.0.1&#x27;, &#x27;::1&#x27;, &#x27;10.129.65.41&#x27;, &#x27;S03VWPR00031.cemtl.rtss.qc.ca&#x27;, &#x27;127.0.0.1&#x27;], &#x27;is_source&#x27;: True, &#x27;gluon_parent&#x27;: &#x27;C:\\\\Users\\\\unificace\\\\unificace\\\\web2py&#x27;, &#x27;is_jython&#x27;: False, &#x27;applications_parent&#x27;: &#x27;C:\\\\Users\\\\unificace\\\\unificace\\\\web2py&#x27;, &#x27;app_folders&#x27;: set([&#x27;C:\\\\Users\\\\unificace\\\\unificace\\\\web2py\\\\applications\\\\init\\\\&#x27;]), &#x27;db_sessions&#x27;: set([]), &#x27;web2py_version&#x27;: &#x27;2.16.1-stable+timestamp.2017.11.14.05.54.25&#x27;, &#x27;is_py2&#x27;: True}&gt;, &#x27;raw_extension&#x27;: None, &#x27;_body&#x27;: &lt;closed file &#x27;&lt;fdopen&gt;&#x27;, mode &#x27;w+b&#x27; at 0x0000000002A9C4B0&gt;, &#x27;args&#x27;: [], &#x27;raw_args&#x27;: &#x27;&#x27;, &#x27;controller&#x27;: &#x27;default&#x27;, &#x27;utcnow&#x27;: datetime.datetime(2022, 8, 27, 15, 14, 53, 995000), &#x27;url&#x27;: &#x27;/&#x27;, &#x27;now&#x27;: datetime.datetime(2022, 8, 27, 11, 14, 53, 995000), &#x27;is_local&#x27;: False, &#x27;wsgi&#x27;: &lt;gluon.main.LazyWSGI object at 0x0000000002B9B0B8&gt;, &#x27;is_shell&#x27;: False, &#x27;extension&#x27;: &#x27;html&#x27;, &#x27;cid&#x27;: None, &#x27;_post_vars&#x27;: None, &#x27;is_scheduler&#x27;: False, &#x27;_get_vars&#x27;: &lt;Storage {}&gt;, &#x27;ajax&#x27;: False, &#x27;is_https&#x27;: True, &#x27;application&#x27;: &#x27;init&#x27;, &#x27;client&#x27;: &#x27;10.129.64.51&#x27;, &#x27;is_restful&#x27;: False, &#x27;env&#x27;: &lt;Storage {&#x27;content_length&#x27;: &#x27;0&#x27;, &#x27;IIS_WasUrlRewritten&#x27;: &#x27;1&#x27;, &#x27;http_x_original_url&#x27;: &#x27;/&#x27;, &#x27;SERVER_SOFTWARE&#x27;: &#x27;Microsoft-IIS/8.5&#x27;, &#x27;SCRIPT_NAME&#x27;: &#x27;&#x27;, &#x27;logon_user&#x27;: &#x27;&#x27;, &#x27;REQUEST_METHOD&#x27;: &#x27;HEAD&#x27;, &#x27;SERVER_PROTOCOL&#x27;: &#x27;HTTP/1.1&#x27;, &#x27;web2py_path&#x27;: &#x27;C:\\\\Users\\\\unificace\\\\unificace\\\\web2py&#x27;, &#x27;CONTENT_LENGTH&#x27;: &#x27;0&#x27;, &#x27;wsgi.url_scheme&#x27;: &#x27;https&#x27;, &#x27;https_server_issuer&#x27;: &#x27;C=US, O=&quot;Entrust, Inc.&quot;, OU=See www.entrust.net/legal-terms, OU=&quot;(c) 2012 Entrust, Inc. - for authorized use only&quot;, CN=Entrust Certification Authority - L1K&#x27;, &#x27;server_name&#x27;: &#x27;10.129.65.41&#x27;, &#x27;auth_type&#x27;: &#x27;&#x27;, &#x27;local_addr&#x27;: &#x27;10.129.65.41&#x27;, &#x27;APP_POOL_ID&#x27;: &#x27;unificace&#x27;, &#x27;cert_subject&#x27;: &#x27;&#x27;, &#x27;instance_name&#x27;: &#x27;UNIFICACE&#x27;, &#x27;DOCUMENT_ROOT&#x27;: &#x27;C:\\\\Users\\\\unificace\\\\unificace\\\\web2py&#x27;, &#x27;iis_wasurlrewritten&#x27;: &#x27;1&#x27;, &#x27;cert_flags&#x27;: &#x27;&#x27;, &#x27;URL&#x27;: &#x27;/handler.web2py&#x27;, &#x27;web2py_version&#x27;: &#x27;2.16.1-stable+timestamp.2017.11.14.05.54.25&#x27;, &#x27;script_name&#x27;: &#x27;&#x27;, &#x27;wsgi.path_info&#x27;: &#x27;/&#x27;, &#x27;cert_cookie&#x27;: &#x27;&#x27;, &#x27;http_connection&#x27;: &#x27;Close&#x27;, &#x27;request_uri&#x27;: &#x27;/&#x27;, &#x27;wsgi.version&#x27;: (1, 0), &#x27;local_hosts&#x27;: [&#x27;S03VWPR00031&#x27;, &#x27;::ffff:127.0.0.1&#x27;, &#x27;::1&#x27;, &#x27;10.129.65.41&#x27;, &#x27;S03VWPR00031.cemtl.rtss.qc.ca&#x27;, &#x27;127.0.0.1&#x27;], &#x27;wsgi.multiprocess&#x27;: True, &#x27;INSTANCE_NAME&#x27;: &#x27;UNIFICACE&#x27;, &#x27;wsgi.run_once&#x27;: False, &#x27;cert_serialnumber&#x27;: &#x27;&#x27;, &#x27;wfastcgi.http_x_original_url&#x27;: &#x27;/&#x27;, &#x27;https_secretkeysize&#x27;: &#x27;2048&#x27;, &#x27;https_server_subject&#x27;: &#x27;C=CA, S=Quebec, L=Quebec, O=Minist\\xe8re de la sant\\xe9 et des services sociaux du Qu\\xe9bec, CN=*.cemtl.rtss.qc.ca&#x27;, &#x27;PATH_INFO&#x27;: &#x27;/&#x27;, &#x27;QUERY_STRING&#x27;: &#x27;&#x27;, &#x27;wfastcgi_http_x_original_url&#x27;: &#x27;/&#x27;, &#x27;HTTP_X_ORIGINAL_URL&#x27;: &#x27;/&#x27;, &#x27;instance_id&#x27;: &#x27;2&#x27;, &#x27;REMOTE_USER&#x27;: &#x27;&#x27;, &#x27;HTTP_CONNECTION&#x27;: &#x27;Close&#x27;, &#x27;REMOTE_ADDR&#x27;: &#x27;10.129.64.51&#x27;, &#x27;INSTANCE_ID&#x27;: &#x27;2&#x27;, &#x27;is_source&#x27;: True, &#x27;PATH_TRANSLATED&#x27;: &#x27;C:\\\\Users\\\\unificace\\\\unificace\\\\web2py\\\\handler.web2py\\\\&#x27;, &#x27;server_port&#x27;: &#x27;443&#x27;, &#x27;remote_port&#x27;: &#x27;5910&#x27;, &#x27;CERT_SERIALNUMBER&#x27;: &#x27;&#x27;, &#x27;wsgi.query_string&#x27;: &#x27;&#x27;, &#x27;HTTPS_SERVER_SUBJECT&#x27;: &#x27;C=CA, S=Quebec, L=Quebec, O=Minist\\xe8re de la sant\\xe9 et des services sociaux du Qu\\xe9bec, CN=*.cemtl.rtss.qc.ca&#x27;, &#x27;unencoded_url&#x27;: &#x27;/&#x27;, &#x27;wsgi_url_scheme&#x27;: &#x27;https&#x27;, &#x27;gluon_parent&#x27;: &#x27;C:\\\\Users\\\\unificace\\\\unificace\\\\web2py&#x27;, &#x27;SCRIPT_FILENAME&#x27;: &#x27;C:\\\\Users\\\\unificace\\\\unificace\\\\web2py\\\\handler.web2py&#x27;, &#x27;http_content_length&#x27;: &#x27;0&#x27;, &#x27;AUTH_USER&#x27;: &#x27;&#x27;, &#x27;wsgi_query_string&#x27;: &#x27;&#x27;, &#x27;iis_urlrewritemodule&#x27;: &#x27;7.1.1980.0&#x27;, &#x27;gateway_interface&#x27;: &#x27;CGI/1.1&#x27;, &#x27;appl_md_path&#x27;: &#x27;/LM/W3SVC/2/ROOT&#x27;, &#x27;query_string&#x27;: &#x27;&#x27;, &#x27;wsgi_run_once&#x27;: False, &#x27;REMOTE_HOST&#x27;: &#x27;10.129.64.51&#x27;, &#x27;AUTH_TYPE&#x27;: &#x27;&#x27;, &#x27;HTTPS_SERVER_ISSUER&#x27;: &#x27;C=US, O=&quot;Entrust, Inc.&quot;, OU=See www.entrust.net/legal-terms, OU=&quot;(c) 2012 Entrust, Inc. - for authorized use only&quot;, CN=Entrust Certification Authority - L1K&#x27;, &#x27;app_pool_config&#x27;: &#x27;C:\\\\inetpub\\\\temp\\\\apppools\\\\unificace\\\\unificace.config&#x27;, &#x27;wsgi.multithread&#x27;: False, &#x27;script_filename&#x27;: &#x27;C:\\\\Users\\\\unificace\\\\unificace\\\\web2py\\\\handler.web2py&#x27;, &#x27;LOCAL_ADDR&#x27;: &#x27;10.129.65.41&#x27;, &#x27;app_pool_id&#x27;: &#x27;unificace&#x27;, &#x27;CERT_COOKIE&#x27;: &#x27;&#x27;, &#x27;https_keysize&#x27;: &#x27;256&#x27;, &#x27;auth_password&#x27;: &#x27;&#x27;, &#x27;cert_issuer&#x27;: &#x27;&#x27;, &#x27;APPL_PHYSICAL_PATH&#x27;: &#x27;C:\\\\Users\\\\unificace\\\\unificace\\\\web2py\\\\&#x27;, &#x27;INSTANCE_META_PATH&#x27;: &#x27;/LM/W3SVC/2&#x27;, &#x27;wsgi_multiprocess&#x27;: True, &#x27;applications_parent&#x27;: &#x27;C:\\\\Users\\\\unificace\\\\unificace\\\\web2py&#x27;, &#x27;request_method&#x27;: &#x27;HEAD&#x27;, &#x27;SERVER_PORT&#x27;: &#x27;443&#x27;, &#x27;server_port_secure&#x27;: &#x27;1&#x27;, &#x27;wsgi_multithread&#x27;: False, &#x27;https&#x27;: &#x27;on&#x27;, &#x27;UNENCODED_URL&#x27;: &#x27;/&#x27;, &#x27;wsgi_path_info&#x27;: &#x27;/&#x27;, &#x27;HTTP_HOST&#x27;: &#x27;10.129.65.41:443&#x27;, &#x27;content_type&#x27;: &#x27;&#x27;, &#x27;REQUEST_URI&#x27;: &#x27;/&#x27;, &#x27;APP_POOL_CONFIG&#x27;: &#x27;C:\\\\inetpub\\\\temp\\\\apppools\\\\unificace\\\\unificace.config&#x27;, &#x27;wsgi.errors&#x27;: &lt;cStringIO.StringO object at 0x0000000002B650D8&gt;, &#x27;LOGON_USER&#x27;: &#x27;&#x27;, &#x27;app_folders&#x27;: set([&#x27;C:\\\\Users\\\\unificace\\\\unificace\\\\web2py\\\\applications\\\\init\\\\&#x27;]), &#x27;url&#x27;: &#x27;/handler.web2py&#x27;, &#x27;path_translated&#x27;: &#x27;C:\\\\Users\\\\unificace\\\\unificace\\\\web2py\\\\handler.web2py\\\\&#x27;, &#x27;HTTP_CONTENT_LENGTH&#x27;: &#x27;0&#x27;, &#x27;SERVER_PORT_SECURE&#x27;: &#x27;1&#x27;, &#x27;debugging&#x27;: False, &#x27;server_protocol&#x27;: &#x27;HTTP/1.1&#x27;, &#x27;AUTH_PASSWORD&#x27;: &#x27;&#x27;, &#x27;wsgi_script_name&#x27;: &#x27;&#x27;, &#x27;IIS_UrlRewriteModule&#x27;: &#x27;7.1.1980.0&#x27;, &#x27;remote_user&#x27;: &#x27;&#x27;, &#x27;SERVER_NAME&#x27;: &#x27;10.129.65.41&#x27;, &#x27;REMOTE_PORT&#x27;: &#x27;5910&#x27;, &#x27;APPL_MD_PATH&#x27;: &#x27;/LM/W3SVC/2/ROOT&#x27;, &#x27;is_jython&#x27;: False, &#x27;wsgi_version&#x27;: (1, 0), &#x27;HTTPS_KEYSIZE&#x27;: &#x27;256&#x27;, &#x27;wsgi_input&#x27;: &lt;cStringIO.StringI object at 0x00000000028EDE88&gt;, &#x27;document_root&#x27;: &#x27;C:\\\\Users\\\\unificace\\\\unificace\\\\web2py&#x27;, &#x27;CONTENT_TYPE&#x27;: &#x27;&#x27;, &#x27;HTTPS_SECRETKEYSIZE&#x27;: &#x27;2048&#x27;, &#x27;server_software&#x27;: &#x27;Microsoft-IIS/8.5&#x27;, &#x27;instance_meta_path&#x27;: &#x27;/LM/W3SVC/2&#x27;, &#x27;wsgi.input&#x27;: &lt;cStringIO.StringI object at 0x00000000028EDE88&gt;, &#x27;appl_physical_path&#x27;: &#x27;C:\\\\Users\\\\unificace\\\\unificace\\\\web2py\\\\&#x27;, &#x27;http_host&#x27;: &#x27;10.129.65.41:443&#x27;, &#x27;path_info&#x27;: &#x27;/&#x27;, &#x27;HTTPS&#x27;: &#x27;on&#x27;, &#x27;auth_user&#x27;: &#x27;&#x27;, &#x27;wsgi_errors&#x27;: &lt;cStringIO.StringO object at 0x0000000002B650D8&gt;, &#x27;CERT_SUBJECT&#x27;: &#x27;&#x27;, &#x27;CERT_ISSUER&#x27;: &#x27;&#x27;, &#x27;CERT_FLAGS&#x27;: &#x27;&#x27;, &#x27;wsgi.script_name&#x27;: &#x27;&#x27;, &#x27;GATEWAY_INTERFACE&#x27;: &#x27;CGI/1.1&#x27;, &#x27;is_pypy&#x27;: False, &#x27;remote_host&#x27;: &#x27;10.129.64.51&#x27;, &#x27;remote_addr&#x27;: &#x27;10.129.64.51&#x27;, &#x27;db_sessions&#x27;: set([]), &#x27;is_py2&#x27;: True}&gt;, &#x27;folder&#x27;: &#x27;C:\\\\Users\\\\unificace\\\\unificace\\\\web2py\\\\applications\\\\init\\\\&#x27;}&gt;</div>'
tRp57
sS'frames'
p58
(lp59
(dp60
S'file'
p61
S'C:\\Users\\unificace\\unificace\\web2py\\gluon\\main.py'
p62
sS'dump'
p63
(dp64
S'global serve_controller'
p65
S'<function serve_controller>'
p66
sS'session'
p67
S'<Storage {}>'
p68
sS'request'
p69
S"<Storage {'_vars': None, 'function': 'index', 'c...icace\\\\unificace\\\\web2py\\\\applications\\\\init\\\\'}>"
p70
sS'response'
p71
S"<Storage {'body': <cStringIO.StringO object at 0...000000000280C898>, 'view': 'default/index.html'}>"
p72
ssS'lnum'
p73
I445
sS'lines'
p74
(dp75
I448
S''
sI449
S'                if static_file:'
p76
sI440
S'                if global_settings.debugging and app != "admin":'
p77
sI441
S'                    import gluon.debug'
p78
sI442
S'                    # activate the debugger'
p79
sI443
S'                    gluon.debug.dbg.do_debug(mainpyfile=request.folder)'
p80
sI444
S''
sI445
S'                serve_controller(request, response, session)'
p81
sI446
S'            except HTTP as hr:'
p82
sI447
S'                http_response = hr'
p83
ssS'call'
p84
S"(environ={'APPL_MD_PATH': '/LM/W3SVC/2/ROOT', 'APPL_PHYSICAL_PATH': r'C:\\Users\\unificace\\unificace\\web2py\\', 'APP_POOL_CONFIG': r'C:\\inetpub\\temp\\apppools\\unificace\\unificace.config', 'APP_POOL_ID': 'unificace', 'AUTH_PASSWORD': '', 'AUTH_TYPE': '', 'AUTH_USER': '', 'CERT_COOKIE': '', 'CERT_FLAGS': '', 'CERT_ISSUER': '', ...}, responder=<bound method handle_response.start of <__main__.handle_response object>>)"
p85
sS'func'
p86
S'wsgibase'
p87
sa(dp88
g61
S'C:\\Users\\unificace\\unificace\\web2py\\gluon\\main.py'
p89
sg63
(dp90
S'environment'
p91
S"{'A': <class 'gluon.html.A'>, 'ANY_OF': <class 'gluon.validators.ANY_OF'>, 'ASSIGNJS': <function ASSIGNJS>, 'B': <class 'gluon.html.B'>, 'BEAUTIFY': <class 'gluon.html.BEAUTIFY'>, 'BODY': <class 'gluon.html.BODY'>, 'BR': <class 'gluon.html.BR'>, 'BUTTON': <class 'gluon.html.BUTTON'>, 'CAT': <class 'gluon.html.CAT'>, 'CENTER': <class 'gluon.html.CENTER'>, ...}"
p92
sS'global run_models_in'
p93
S'<function run_models_in>'
p94
ssg73
I178
sg74
(dp95
I173
S'    # also, make sure the flash is passed through'
p96
sI174
S'    # ##################################################'
p97
sI175
S'    # process models, controller and view (if required)'
p98
sI176
S'    # ##################################################'
p99
sI177
S''
sI178
S'    run_models_in(environment)'
p100
sI179
S'    response._view_environment = copy.copy(environment)'
p101
sI180
S'    page = run_controller_in(request.controller, request.function, environment)'
p102
sI181
S'    if isinstance(page, dict):'
p103
sI182
S'        response._vars = page'
p104
ssg84
S"(request=<Storage {'_vars': None, 'function': 'index', 'c...icace\\\\unificace\\\\web2py\\\\applications\\\\init\\\\'}>, response=<Storage {'body': <cStringIO.StringO object at 0...000000000280C898>, 'view': 'default/index.html'}>, session=<Storage {}>)"
p105
sg86
S'serve_controller'
p106
sa(dp107
g61
S'C:\\Users\\unificace\\unificace\\web2py\\gluon\\compileapp.py'
p108
sg63
(dp109
S'global getcfs'
p110
S'<function getcfs>'
p111
sS'model'
p112
S"r'C:\\Users\\unificace\\unificace\\web2py\\applications\\init\\models\\db.py'"
p113
sS'ccode'
p114
S'undefined'
p115
sS'f'
S'<function <lambda>>'
p116
ssg73
I592
sg74
(dp117
I587
S'                continue'
p118
sI588
S'            elif compiled:'
p119
sI589
S'                f = lambda: read_pyc(model)'
p120
sI590
S'            else:'
p121
sI591
S'                f = lambda: compile2(read_file(model), model)'
p122
sI592
S'            ccode = getcfs(model, model, f)'
p123
sI593
S'            restricted(ccode, environment, layer=model)'
p124
sI594
S''
sI595
S''
sI596
S'def run_controller_in(controller, function, environment):'
p125
ssg84
S"(environment={'A': <class 'gluon.html.A'>, 'ANY_OF': <class 'gluon.validators.ANY_OF'>, 'ASSIGNJS': <function ASSIGNJS>, 'B': <class 'gluon.html.B'>, 'BEAUTIFY': <class 'gluon.html.BEAUTIFY'>, 'BODY': <class 'gluon.html.BODY'>, 'BR': <class 'gluon.html.BR'>, 'BUTTON': <class 'gluon.html.BUTTON'>, 'CAT': <class 'gluon.html.CAT'>, 'CENTER': <class 'gluon.html.CENTER'>, ...})"
p126
sg86
S'run_models_in'
p127
sa(dp128
g61
S'C:\\Users\\unificace\\unificace\\web2py\\gluon\\cfs.py'
p129
sg63
(dp130
S'filter'
p131
S'<function <lambda>>'
p132
sS'data'
p133
g115
ssg73
I50
sg74
(dp134
I45
S'    if item and item[0] == t:'
p135
sI46
S'        return item[1]'
p136
sI47
S'    if not callable(filter):'
p137
sI48
S'        data = read_file(filename)'
p138
sI49
S'    else:'
p139
sI50
S'        data = filter()'
p140
sI51
S'    cfs_lock.acquire()'
p141
sI52
S'    cfs[key] = (t, data)'
p142
sI53
S'    cfs_lock.release()'
p143
sI54
S'    return data'
p144
ssg84
S"(key=r'C:\\Users\\unificace\\unificace\\web2py\\applications\\init\\models\\db.py', filename=r'C:\\Users\\unificace\\unificace\\web2py\\applications\\init\\models\\db.py', filter=<function <lambda>>)"
p145
sg86
S'getcfs'
p146
sa(dp147
g61
S'C:\\Users\\unificace\\unificace\\web2py\\gluon\\compileapp.py'
p148
sg63
(dp149
S'global read_file'
p150
S'<function read_file>'
p151
sS'model'
p152
S"r'C:\\Users\\unificace\\unificace\\web2py\\applications\\init\\models\\db.py'"
p153
sS'global compile2'
p154
S'<function compile2>'
p155
sS'f'
g115
ssg73
I591
sg74
(dp156
I586
S"            if not regex.search(fname) and c != 'appadmin':"
p157
sI587
S'                continue'
p158
sI588
S'            elif compiled:'
p159
sI589
S'                f = lambda: read_pyc(model)'
p160
sI590
S'            else:'
p161
sI591
S'                f = lambda: compile2(read_file(model), model)'
p162
sI592
S'            ccode = getcfs(model, model, f)'
p163
sI593
S'            restricted(ccode, environment, layer=model)'
p164
sI594
S''
sI595
S''
ssg84
S'()'
p165
sg86
S'<lambda>'
p166
sa(dp167
g61
S'C:\\Users\\unificace\\unificace\\web2py\\gluon\\restricted.py'
p168
sg63
(dp169
S'builtincompile'
p170
S'<built-in function compile>'
p171
sS'code'
p172
S'\'# -*- coding: utf-8 -*-\\n\\n#vp redirection\\n#if ".".../"+value),label=T(\\\'LINKS\\\')),\\n                )\\n\\n\\n\''
p173
sS'layer'
p174
S"r'C:\\Users\\unificace\\unificace\\web2py\\applications\\init\\models\\db.py'"
p175
ssg73
I205
sg74
(dp176
I200
S'            output = ""'
p177
sI201
S'        return output'
p178
sI202
S''
sI203
S''
sI204
S'def compile2(code, layer):'
p179
sI205
S"    return compile(code, layer, 'exec')"
p180
sI206
S''
sI207
S''
sI208
S"def restricted(ccode, environment=None, layer='Unknown', scode=None):"
p181
sI209
S'    """'
p182
ssg84
S'(code=\'# -*- coding: utf-8 -*-\\n\\n#vp redirection\\n#if ".".../"+value),label=T(\\\'LINKS\\\')),\\n                )\\n\\n\\n\', layer=r\'C:\\Users\\unificace\\unificace\\web2py\\applications\\init\\models\\db.py\')'
p183
sg86
S'compile2'
p184
sasS'pyver'
p185
S'Python 2.7.13: c:\\python27\\python.exe (prefix: c:\\python27)'
p186
sS'session'
p187
g56
(S's\x1a\x00\x00\x00<div><table></table></div>'
tRp188
sS'etype'
p189
S"<type 'exceptions.MemoryError'>"
p190
sS'date'
p191
S'Sat Aug 27 11:14:53 2022'
p192
sS'response'
p193
g56
(S's:\x16\x00\x00<div><table><tr><td style="font-weight:bold;vertical-align:top;">body</td><td style="vertical-align:top;">:</td><td><div>&lt;cStringIO.StringO object at 0x0000000002B55228&gt;</div></td></tr><tr><td style="font-weight:bold;vertical-align:top;">cookies</td><td style="vertical-align:top;">:</td><td><div><table><tr><td style="font-weight:bold;vertical-align:top;">session_id_init</td><td style="vertical-align:top;">:</td><td><div>10.129.64.51-81afb832-a689-41de-b5a1-27d6ff0fc945<table><tr><td style="font-weight:bold;vertical-align:top;">comment</td><td style="vertical-align:top;">:</td><td><div></div></td></tr><tr><td style="font-weight:bold;vertical-align:top;">domain</td><td style="vertical-align:top;">:</td><td><div></div></td></tr><tr><td style="font-weight:bold;vertical-align:top;">expires</td><td style="vertical-align:top;">:</td><td><div></div></td></tr><tr><td style="font-weight:bold;vertical-align:top;">httponly</td><td style="vertical-align:top;">:</td><td><div></div></td></tr><tr><td style="font-weight:bold;vertical-align:top;">max-age</td><td style="vertical-align:top;">:</td><td><div></div></td></tr><tr><td style="font-weight:bold;vertical-align:top;">path</td><td style="vertical-align:top;">:</td><td><div>/</div></td></tr><tr><td style="font-weight:bold;vertical-align:top;">secure</td><td style="vertical-align:top;">:</td><td><div></div></td></tr><tr><td style="font-weight:bold;vertical-align:top;">version</td><td style="vertical-align:top;">:</td><td><div></div></td></tr></table></div></td></tr></table></div></td></tr><tr><td style="font-weight:bold;vertical-align:top;">delimiters</td><td style="vertical-align:top;">:</td><td><div><table><tr><td><div>{{</div></td></tr><tr><td><div>}}</div></td></tr></table></div></td></tr><tr><td style="font-weight:bold;vertical-align:top;">files</td><td style="vertical-align:top;">:</td><td><div><table></table></div></td></tr><tr><td style="font-weight:bold;vertical-align:top;">flash</td><td style="vertical-align:top;">:</td><td><div></div></td></tr><tr><td style="font-weight:bold;vertical-align:top;">form_label_separator</td><td style="vertical-align:top;">:</td><td><div>: </div></td></tr><tr><td style="font-weight:bold;vertical-align:top;">formstyle</td><td style="vertical-align:top;">:</td><td><div>table3cols</div></td></tr><tr><td style="font-weight:bold;vertical-align:top;">generic_patterns</td><td style="vertical-align:top;">:</td><td><div><table><tr><td><div>*</div></td></tr></table></div></td></tr><tr><td style="font-weight:bold;vertical-align:top;">headers</td><td style="vertical-align:top;">:</td><td><div><table><tr><td style="font-weight:bold;vertical-align:top;">X-Powered-By</td><td style="vertical-align:top;">:</td><td><div>web2py</div></td></tr></table></div></td></tr><tr><td style="font-weight:bold;vertical-align:top;">menu</td><td style="vertical-align:top;">:</td><td><div><table></table></div></td></tr><tr><td style="font-weight:bold;vertical-align:top;">meta</td><td style="vertical-align:top;">:</td><td><div><table></table></div></td></tr><tr><td style="font-weight:bold;vertical-align:top;">models_to_run</td><td style="vertical-align:top;">:</td><td><div><table><tr><td><div>^\\w+\\.py$</div></td></tr><tr><td><div>^default/\\w+\\.py$</div></td></tr><tr><td><div>^default/index/\\w+\\.py$</div></td></tr></table></div></td></tr><tr><td style="font-weight:bold;vertical-align:top;">postprocessing</td><td style="vertical-align:top;">:</td><td><div><table></table></div></td></tr><tr><td style="font-weight:bold;vertical-align:top;">session_client</td><td style="vertical-align:top;">:</td><td><div>10.129.64.51</div></td></tr><tr><td style="font-weight:bold;vertical-align:top;">session_cookie_compression_level</td><td style="vertical-align:top;">:</td><td><div>None</div></td></tr><tr><td style="font-weight:bold;vertical-align:top;">session_cookie_expires</td><td style="vertical-align:top;">:</td><td><div>None</div></td></tr><tr><td style="font-weight:bold;vertical-align:top;">session_data_name</td><td style="vertical-align:top;">:</td><td><div>session_data_init</div></td></tr><tr><td style="font-weight:bold;vertical-align:top;">session_file</td><td style="vertical-align:top;">:</td><td><div>None</div></td></tr><tr><td style="font-weight:bold;vertical-align:top;">session_filename</td><td style="vertical-align:top;">:</td><td><div>C:\\Users\\unificace\\unificace\\web2py\\applications\\init\\sessions\\10.129.64.51-81afb832-a689-41de-b5a1-27d6ff0fc945</div></td></tr><tr><td style="font-weight:bold;vertical-align:top;">session_hash</td><td style="vertical-align:top;">:</td><td><div>c0762cbf4baf7f9af97c051e7fcb8083</div></td></tr><tr><td style="font-weight:bold;vertical-align:top;">session_id</td><td style="vertical-align:top;">:</td><td><div>10.129.64.51-81afb832-a689-41de-b5a1-27d6ff0fc945</div></td></tr><tr><td style="font-weight:bold;vertical-align:top;">session_id_name</td><td style="vertical-align:top;">:</td><td><div>session_id_init</div></td></tr><tr><td style="font-weight:bold;vertical-align:top;">session_masterapp</td><td style="vertical-align:top;">:</td><td><div>init</div></td></tr><tr><td style="font-weight:bold;vertical-align:top;">session_new</td><td style="vertical-align:top;">:</td><td><div>True</div></td></tr><tr><td style="font-weight:bold;vertical-align:top;">session_storage_type</td><td style="vertical-align:top;">:</td><td><div>file</div></td></tr><tr><td style="font-weight:bold;vertical-align:top;">status</td><td style="vertical-align:top;">:</td><td><div>200</div></td></tr><tr><td style="font-weight:bold;vertical-align:top;">view</td><td style="vertical-align:top;">:</td><td><div>default/index.html</div></td></tr></table></div>'
tRp194
sS'locals'
p195
(dp196
g3
S"r'C:\\Users\\unificace\\unificace\\web2py\\applications\\init\\models\\db.py'"
p197
sg5
S'\'# -*- coding: utf-8 -*-\\n\\n#vp redirection\\n#if ".".../"+value),label=T(\\\'LINKS\\\')),\\n                )\\n\\n\\n\''
p198
sssS'traceback'
p199
S'Traceback (most recent call last):\n  File ".\\gluon\\main.py", line 445, in wsgibase\n    serve_controller(request, response, session)\n  File ".\\gluon\\main.py", line 178, in serve_controller\n    run_models_in(environment)\n  File ".\\gluon\\compileapp.py", line 592, in run_models_in\n    ccode = getcfs(model, model, f)\n  File ".\\gluon\\cfs.py", line 50, in getcfs\n    data = filter()\n  File ".\\gluon\\compileapp.py", line 591, in <lambda>\n    f = lambda: compile2(read_file(model), model)\n  File ".\\gluon\\restricted.py", line 205, in compile2\n    return compile(code, layer, \'exec\')\nMemoryError\n'
p200
s.