(dp1
S'output'
p2
S'<class \'gluon.contrib.pypyodbc.ProgrammingError\'> (u\'42S01\', u"[42S01] [Microsoft][ODBC SQL Server Driver][SQL Server]There is already an object named \'auth_permission\' in the database.")'
p3
sS'layer'
p4
S'C:\\Users\\unificace\\unificace\\web2py\\applications\\init\\models\\db.py'
p5
sS'code'
p6
S'<code object <module> at 0000000002573730, file "C:\\Users\\unificace\\unificace\\web2py\\applications\\init\\models\\db.py", line 14>'
p7
sS'snapshot'
p8
(dp9
S'exception'
p10
(dp11
S'__module__'
p12
S"'gluon.contrib.pypyodbc'"
p13
sS'__getslice__'
p14
S"<method-wrapper '__getslice__' of ProgrammingError object>"
p15
sS'__str__'
p16
S"<method-wrapper '__str__' of ProgrammingError object>"
p17
sS'__reduce__'
p18
S'<built-in method __reduce__ of ProgrammingError object>'
p19
sS'__dict__'
p20
S'{\'value\': (u\'42S01\', u"[42S01] [Microsoft][ODBC SQL Server Driver][SQ... object named \'auth_permission\' in the database.")}'
p21
sS'__sizeof__'
p22
S'<built-in method __sizeof__ of ProgrammingError object>'
p23
sS'__weakref__'
p24
S'None'
p25
sS'message'
p26
S"''"
p27
sS'__init__'
p28
S'<bound method ProgrammingError.__init__ of Progr...bject named \'auth_permission\' in the database.")>'
p29
sS'__setattr__'
p30
S"<method-wrapper '__setattr__' of ProgrammingError object>"
p31
sS'__reduce_ex__'
p32
S'<built-in method __reduce_ex__ of ProgrammingError object>'
p33
sS'__new__'
p34
S'<built-in method __new__ of type object>'
p35
sS'__format__'
p36
S'<built-in method __format__ of ProgrammingError object>'
p37
sS'__class__'
p38
S"<class 'gluon.contrib.pypyodbc.ProgrammingError'>"
p39
sS'__doc__'
p40
S'None'
p41
sS'__getitem__'
p42
S"<method-wrapper '__getitem__' of ProgrammingError object>"
p43
sS'__setstate__'
p44
S'<built-in method __setstate__ of ProgrammingError object>'
p45
sS'__getattribute__'
p46
S"<method-wrapper '__getattribute__' of ProgrammingError object>"
p47
sS'args'
p48
S'(u\'42S01\', u"[42S01] [Microsoft][ODBC SQL Server Driver][SQ... object named \'auth_permission\' in the database.")'
p49
sS'__subclasshook__'
p50
S'<built-in method __subclasshook__ of type object>'
p51
sS'__unicode__'
p52
S'<built-in method __unicode__ of ProgrammingError object>'
p53
sS'value'
p54
S'(u\'42S01\', u"[42S01] [Microsoft][ODBC SQL Server Driver][SQ... object named \'auth_permission\' in the database.")'
p55
sS'__delattr__'
p56
S"<method-wrapper '__delattr__' of ProgrammingError object>"
p57
sS'__repr__'
p58
S"<method-wrapper '__repr__' of ProgrammingError object>"
p59
sS'__hash__'
p60
S"<method-wrapper '__hash__' of ProgrammingError object>"
p61
ssS'evalue'
p62
S'(u\'42S01\', u"[42S01] [Microsoft][ODBC SQL Server Driver][SQL Server]There is already an object named \'auth_permission\' in the database.")'
p63
sS'request'
p64
cgluon.html
XML_unpickle
p65
(S's\x07d\x00\x00<div><table><tr><td style="font-weight:bold;vertical-align:top;">ajax</td><td style="vertical-align:top;">:</td><td><div>False</div></td></tr><tr><td style="font-weight:bold;vertical-align:top;">application</td><td style="vertical-align:top;">:</td><td><div>init</div></td></tr><tr><td style="font-weight:bold;vertical-align:top;">args</td><td style="vertical-align:top;">:</td><td><div><table></table></div></td></tr><tr><td style="font-weight:bold;vertical-align:top;">cid</td><td style="vertical-align:top;">:</td><td><div>None</div></td></tr><tr><td style="font-weight:bold;vertical-align:top;">client</td><td style="vertical-align:top;">:</td><td><div>10.129.64.51</div></td></tr><tr><td style="font-weight:bold;vertical-align:top;">controller</td><td style="vertical-align:top;">:</td><td><div>default</div></td></tr><tr><td style="font-weight:bold;vertical-align:top;">cookies</td><td style="vertical-align:top;">:</td><td><div><table></table></div></td></tr><tr><td style="font-weight:bold;vertical-align:top;">env</td><td style="vertical-align:top;">:</td><td><div><table><tr><td style="font-weight:bold;vertical-align:top;">APPL_MD_PATH</td><td style="vertical-align:top;">:</td><td><div>/LM/W3SVC/2/ROOT</div></td></tr><tr><td style="font-weight:bold;vertical-align:top;">APPL_PHYSICAL_PATH</td><td style="vertical-align:top;">:</td><td><div>C:\\Users\\unificace\\unificace\\web2py\\</div></td></tr><tr><td style="font-weight:bold;vertical-align:top;">APP_POOL_CONFIG</td><td style="vertical-align:top;">:</td><td><div>C:\\inetpub\\temp\\apppools\\unificace\\unificace.config</div></td></tr><tr><td style="font-weight:bold;vertical-align:top;">APP_POOL_ID</td><td style="vertical-align:top;">:</td><td><div>unificace</div></td></tr><tr><td style="font-weight:bold;vertical-align:top;">AUTH_PASSWORD</td><td style="vertical-align:top;">:</td><td><div></div></td></tr><tr><td style="font-weight:bold;vertical-align:top;">AUTH_TYPE</td><td style="vertical-align:top;">:</td><td><div></div></td></tr><tr><td style="font-weight:bold;vertical-align:top;">AUTH_USER</td><td style="vertical-align:top;">:</td><td><div></div></td></tr><tr><td style="font-weight:bold;vertical-align:top;">CERT_COOKIE</td><td style="vertical-align:top;">:</td><td><div></div></td></tr><tr><td style="font-weight:bold;vertical-align:top;">CERT_FLAGS</td><td style="vertical-align:top;">:</td><td><div></div></td></tr><tr><td style="font-weight:bold;vertical-align:top;">CERT_ISSUER</td><td style="vertical-align:top;">:</td><td><div></div></td></tr><tr><td style="font-weight:bold;vertical-align:top;">CERT_SERIALNUMBER</td><td style="vertical-align:top;">:</td><td><div></div></td></tr><tr><td style="font-weight:bold;vertical-align:top;">CERT_SUBJECT</td><td style="vertical-align:top;">:</td><td><div></div></td></tr><tr><td style="font-weight:bold;vertical-align:top;">CONTENT_LENGTH</td><td style="vertical-align:top;">:</td><td><div>0</div></td></tr><tr><td style="font-weight:bold;vertical-align:top;">CONTENT_TYPE</td><td style="vertical-align:top;">:</td><td><div></div></td></tr><tr><td style="font-weight:bold;vertical-align:top;">DOCUMENT_ROOT</td><td style="vertical-align:top;">:</td><td><div>C:\\Users\\unificace\\unificace\\web2py</div></td></tr><tr><td style="font-weight:bold;vertical-align:top;">GATEWAY_INTERFACE</td><td style="vertical-align:top;">:</td><td><div>CGI/1.1</div></td></tr><tr><td style="font-weight:bold;vertical-align:top;">HTTPS</td><td style="vertical-align:top;">:</td><td><div>on</div></td></tr><tr><td style="font-weight:bold;vertical-align:top;">HTTPS_KEYSIZE</td><td style="vertical-align:top;">:</td><td><div>256</div></td></tr><tr><td style="font-weight:bold;vertical-align:top;">HTTPS_SECRETKEYSIZE</td><td style="vertical-align:top;">:</td><td><div>2048</div></td></tr><tr><td style="font-weight:bold;vertical-align:top;">HTTPS_SERVER_ISSUER</td><td style="vertical-align:top;">:</td><td><div>C=US, O=&quot;Entrust, Inc.&quot;, OU=See www.entrust.net/legal-terms, OU=&quot;(c) 2012 Entrust, Inc. - for authorized use only&quot;, CN=Entrust Certification Authority - L1K</div></td></tr><tr><td style="font-weight:bold;vertical-align:top;">HTTPS_SERVER_SUBJECT</td><td style="vertical-align:top;">:</td><td><div>C=CA, S=Quebec, L=Quebec, O=Minist\xe8re de la sant\xe9 et des services sociaux du Qu\xe9bec, CN=*.cemtl.rtss.qc.ca</div></td></tr><tr><td style="font-weight:bold;vertical-align:top;">HTTP_CONNECTION</td><td style="vertical-align:top;">:</td><td><div>Close</div></td></tr><tr><td style="font-weight:bold;vertical-align:top;">HTTP_CONTENT_LENGTH</td><td style="vertical-align:top;">:</td><td><div>0</div></td></tr><tr><td style="font-weight:bold;vertical-align:top;">HTTP_HOST</td><td style="vertical-align:top;">:</td><td><div>10.129.65.41:443</div></td></tr><tr><td style="font-weight:bold;vertical-align:top;">HTTP_X_ORIGINAL_URL</td><td style="vertical-align:top;">:</td><td><div>/</div></td></tr><tr><td style="font-weight:bold;vertical-align:top;">IIS_UrlRewriteModule</td><td style="vertical-align:top;">:</td><td><div>7.1.1980.0</div></td></tr><tr><td style="font-weight:bold;vertical-align:top;">IIS_WasUrlRewritten</td><td style="vertical-align:top;">:</td><td><div>1</div></td></tr><tr><td style="font-weight:bold;vertical-align:top;">INSTANCE_ID</td><td style="vertical-align:top;">:</td><td><div>2</div></td></tr><tr><td style="font-weight:bold;vertical-align:top;">INSTANCE_META_PATH</td><td style="vertical-align:top;">:</td><td><div>/LM/W3SVC/2</div></td></tr><tr><td style="font-weight:bold;vertical-align:top;">INSTANCE_NAME</td><td style="vertical-align:top;">:</td><td><div>UNIFICACE</div></td></tr><tr><td style="font-weight:bold;vertical-align:top;">LOCAL_ADDR</td><td style="vertical-align:top;">:</td><td><div>10.129.65.41</div></td></tr><tr><td style="font-weight:bold;vertical-align:top;">LOGON_USER</td><td style="vertical-align:top;">:</td><td><div></div></td></tr><tr><td style="font-weight:bold;vertical-align:top;">PATH_INFO</td><td style="vertical-align:top;">:</td><td><div>/</div></td></tr><tr><td style="font-weight:bold;vertical-align:top;">PATH_TRANSLATED</td><td style="vertical-align:top;">:</td><td><div>C:\\Users\\unificace\\unificace\\web2py\\handler.web2py\\</div></td></tr><tr><td style="font-weight:bold;vertical-align:top;">QUERY_STRING</td><td style="vertical-align:top;">:</td><td><div></div></td></tr><tr><td style="font-weight:bold;vertical-align:top;">REMOTE_ADDR</td><td style="vertical-align:top;">:</td><td><div>10.129.64.51</div></td></tr><tr><td style="font-weight:bold;vertical-align:top;">REMOTE_HOST</td><td style="vertical-align:top;">:</td><td><div>10.129.64.51</div></td></tr><tr><td style="font-weight:bold;vertical-align:top;">REMOTE_PORT</td><td style="vertical-align:top;">:</td><td><div>31017</div></td></tr><tr><td style="font-weight:bold;vertical-align:top;">REMOTE_USER</td><td style="vertical-align:top;">:</td><td><div></div></td></tr><tr><td style="font-weight:bold;vertical-align:top;">REQUEST_METHOD</td><td style="vertical-align:top;">:</td><td><div>HEAD</div></td></tr><tr><td style="font-weight:bold;vertical-align:top;">REQUEST_URI</td><td style="vertical-align:top;">:</td><td><div>/</div></td></tr><tr><td style="font-weight:bold;vertical-align:top;">SCRIPT_FILENAME</td><td style="vertical-align:top;">:</td><td><div>C:\\Users\\unificace\\unificace\\web2py\\handler.web2py</div></td></tr><tr><td style="font-weight:bold;vertical-align:top;">SCRIPT_NAME</td><td style="vertical-align:top;">:</td><td><div></div></td></tr><tr><td style="font-weight:bold;vertical-align:top;">SERVER_NAME</td><td style="vertical-align:top;">:</td><td><div>10.129.65.41</div></td></tr><tr><td style="font-weight:bold;vertical-align:top;">SERVER_PORT</td><td style="vertical-align:top;">:</td><td><div>443</div></td></tr><tr><td style="font-weight:bold;vertical-align:top;">SERVER_PORT_SECURE</td><td style="vertical-align:top;">:</td><td><div>1</div></td></tr><tr><td style="font-weight:bold;vertical-align:top;">SERVER_PROTOCOL</td><td style="vertical-align:top;">:</td><td><div>HTTP/1.1</div></td></tr><tr><td style="font-weight:bold;vertical-align:top;">SERVER_SOFTWARE</td><td style="vertical-align:top;">:</td><td><div>Microsoft-IIS/8.5</div></td></tr><tr><td style="font-weight:bold;vertical-align:top;">UNENCODED_URL</td><td style="vertical-align:top;">:</td><td><div>/</div></td></tr><tr><td style="font-weight:bold;vertical-align:top;">URL</td><td style="vertical-align:top;">:</td><td><div>/handler.web2py</div></td></tr><tr><td style="font-weight:bold;vertical-align:top;">app_folders</td><td style="vertical-align:top;">:</td><td><div>set([&#x27;C:\\\\Users\\\\unificace\\\\unificace\\\\web2py\\\\applications\\\\init\\\\&#x27;])</div></td></tr><tr><td style="font-weight:bold;vertical-align:top;">app_pool_config</td><td style="vertical-align:top;">:</td><td><div>C:\\inetpub\\temp\\apppools\\unificace\\unificace.config</div></td></tr><tr><td style="font-weight:bold;vertical-align:top;">app_pool_id</td><td style="vertical-align:top;">:</td><td><div>unificace</div></td></tr><tr><td style="font-weight:bold;vertical-align:top;">appl_md_path</td><td style="vertical-align:top;">:</td><td><div>/LM/W3SVC/2/ROOT</div></td></tr><tr><td style="font-weight:bold;vertical-align:top;">appl_physical_path</td><td style="vertical-align:top;">:</td><td><div>C:\\Users\\unificace\\unificace\\web2py\\</div></td></tr><tr><td style="font-weight:bold;vertical-align:top;">applications_parent</td><td style="vertical-align:top;">:</td><td><div>C:\\Users\\unificace\\unificace\\web2py</div></td></tr><tr><td style="font-weight:bold;vertical-align:top;">auth_password</td><td style="vertical-align:top;">:</td><td><div></div></td></tr><tr><td style="font-weight:bold;vertical-align:top;">auth_type</td><td style="vertical-align:top;">:</td><td><div></div></td></tr><tr><td style="font-weight:bold;vertical-align:top;">auth_user</td><td style="vertical-align:top;">:</td><td><div></div></td></tr><tr><td style="font-weight:bold;vertical-align:top;">cert_cookie</td><td style="vertical-align:top;">:</td><td><div></div></td></tr><tr><td style="font-weight:bold;vertical-align:top;">cert_flags</td><td style="vertical-align:top;">:</td><td><div></div></td></tr><tr><td style="font-weight:bold;vertical-align:top;">cert_issuer</td><td style="vertical-align:top;">:</td><td><div></div></td></tr><tr><td style="font-weight:bold;vertical-align:top;">cert_serialnumber</td><td style="vertical-align:top;">:</td><td><div></div></td></tr><tr><td style="font-weight:bold;vertical-align:top;">cert_subject</td><td style="vertical-align:top;">:</td><td><div></div></td></tr><tr><td style="font-weight:bold;vertical-align:top;">content_length</td><td style="vertical-align:top;">:</td><td><div>0</div></td></tr><tr><td style="font-weight:bold;vertical-align:top;">content_type</td><td style="vertical-align:top;">:</td><td><div></div></td></tr><tr><td style="font-weight:bold;vertical-align:top;">db_sessions</td><td style="vertical-align:top;">:</td><td><div>set([])</div></td></tr><tr><td style="font-weight:bold;vertical-align:top;">debugging</td><td style="vertical-align:top;">:</td><td><div>False</div></td></tr><tr><td style="font-weight:bold;vertical-align:top;">document_root</td><td style="vertical-align:top;">:</td><td><div>C:\\Users\\unificace\\unificace\\web2py</div></td></tr><tr><td style="font-weight:bold;vertical-align:top;">gateway_interface</td><td style="vertical-align:top;">:</td><td><div>CGI/1.1</div></td></tr><tr><td style="font-weight:bold;vertical-align:top;">gluon_parent</td><td style="vertical-align:top;">:</td><td><div>C:\\Users\\unificace\\unificace\\web2py</div></td></tr><tr><td style="font-weight:bold;vertical-align:top;">http_connection</td><td style="vertical-align:top;">:</td><td><div>Close</div></td></tr><tr><td style="font-weight:bold;vertical-align:top;">http_content_length</td><td style="vertical-align:top;">:</td><td><div>0</div></td></tr><tr><td style="font-weight:bold;vertical-align:top;">http_host</td><td style="vertical-align:top;">:</td><td><div>10.129.65.41:443</div></td></tr><tr><td style="font-weight:bold;vertical-align:top;">http_x_original_url</td><td style="vertical-align:top;">:</td><td><div>/</div></td></tr><tr><td style="font-weight:bold;vertical-align:top;">https</td><td style="vertical-align:top;">:</td><td><div>on</div></td></tr><tr><td style="font-weight:bold;vertical-align:top;">https_keysize</td><td style="vertical-align:top;">:</td><td><div>256</div></td></tr><tr><td style="font-weight:bold;vertical-align:top;">https_secretkeysize</td><td style="vertical-align:top;">:</td><td><div>2048</div></td></tr><tr><td style="font-weight:bold;vertical-align:top;">https_server_issuer</td><td style="vertical-align:top;">:</td><td><div>C=US, O=&quot;Entrust, Inc.&quot;, OU=See www.entrust.net/legal-terms, OU=&quot;(c) 2012 Entrust, Inc. - for authorized use only&quot;, CN=Entrust Certification Authority - L1K</div></td></tr><tr><td style="font-weight:bold;vertical-align:top;">https_server_subject</td><td style="vertical-align:top;">:</td><td><div>C=CA, S=Quebec, L=Quebec, O=Minist\xe8re de la sant\xe9 et des services sociaux du Qu\xe9bec, CN=*.cemtl.rtss.qc.ca</div></td></tr><tr><td style="font-weight:bold;vertical-align:top;">iis_urlrewritemodule</td><td style="vertical-align:top;">:</td><td><div>7.1.1980.0</div></td></tr><tr><td style="font-weight:bold;vertical-align:top;">iis_wasurlrewritten</td><td style="vertical-align:top;">:</td><td><div>1</div></td></tr><tr><td style="font-weight:bold;vertical-align:top;">instance_id</td><td style="vertical-align:top;">:</td><td><div>2</div></td></tr><tr><td style="font-weight:bold;vertical-align:top;">instance_meta_path</td><td style="vertical-align:top;">:</td><td><div>/LM/W3SVC/2</div></td></tr><tr><td style="font-weight:bold;vertical-align:top;">instance_name</td><td style="vertical-align:top;">:</td><td><div>UNIFICACE</div></td></tr><tr><td style="font-weight:bold;vertical-align:top;">is_jython</td><td style="vertical-align:top;">:</td><td><div>False</div></td></tr><tr><td style="font-weight:bold;vertical-align:top;">is_py2</td><td style="vertical-align:top;">:</td><td><div>True</div></td></tr><tr><td style="font-weight:bold;vertical-align:top;">is_pypy</td><td style="vertical-align:top;">:</td><td><div>False</div></td></tr><tr><td style="font-weight:bold;vertical-align:top;">is_source</td><td style="vertical-align:top;">:</td><td><div>True</div></td></tr><tr><td style="font-weight:bold;vertical-align:top;">local_addr</td><td style="vertical-align:top;">:</td><td><div>10.129.65.41</div></td></tr><tr><td style="font-weight:bold;vertical-align:top;">local_hosts</td><td style="vertical-align:top;">:</td><td><div><table><tr><td><div>S03VWPR00031</div></td></tr><tr><td><div>::ffff:127.0.0.1</div></td></tr><tr><td><div>::1</div></td></tr><tr><td><div>10.129.65.41</div></td></tr><tr><td><div>S03VWPR00031.cemtl.rtss.qc.ca</div></td></tr><tr><td><div>127.0.0.1</div></td></tr></table></div></td></tr><tr><td style="font-weight:bold;vertical-align:top;">logon_user</td><td style="vertical-align:top;">:</td><td><div></div></td></tr><tr><td style="font-weight:bold;vertical-align:top;">path_info</td><td style="vertical-align:top;">:</td><td><div>/</div></td></tr><tr><td style="font-weight:bold;vertical-align:top;">path_translated</td><td style="vertical-align:top;">:</td><td><div>C:\\Users\\unificace\\unificace\\web2py\\handler.web2py\\</div></td></tr><tr><td style="font-weight:bold;vertical-align:top;">query_string</td><td style="vertical-align:top;">:</td><td><div></div></td></tr><tr><td style="font-weight:bold;vertical-align:top;">remote_addr</td><td style="vertical-align:top;">:</td><td><div>10.129.64.51</div></td></tr><tr><td style="font-weight:bold;vertical-align:top;">remote_host</td><td style="vertical-align:top;">:</td><td><div>10.129.64.51</div></td></tr><tr><td style="font-weight:bold;vertical-align:top;">remote_port</td><td style="vertical-align:top;">:</td><td><div>31017</div></td></tr><tr><td style="font-weight:bold;vertical-align:top;">remote_user</td><td style="vertical-align:top;">:</td><td><div></div></td></tr><tr><td style="font-weight:bold;vertical-align:top;">request_method</td><td style="vertical-align:top;">:</td><td><div>HEAD</div></td></tr><tr><td style="font-weight:bold;vertical-align:top;">request_uri</td><td style="vertical-align:top;">:</td><td><div>/</div></td></tr><tr><td style="font-weight:bold;vertical-align:top;">script_filename</td><td style="vertical-align:top;">:</td><td><div>C:\\Users\\unificace\\unificace\\web2py\\handler.web2py</div></td></tr><tr><td style="font-weight:bold;vertical-align:top;">script_name</td><td style="vertical-align:top;">:</td><td><div></div></td></tr><tr><td style="font-weight:bold;vertical-align:top;">server_name</td><td style="vertical-align:top;">:</td><td><div>10.129.65.41</div></td></tr><tr><td style="font-weight:bold;vertical-align:top;">server_port</td><td style="vertical-align:top;">:</td><td><div>443</div></td></tr><tr><td style="font-weight:bold;vertical-align:top;">server_port_secure</td><td style="vertical-align:top;">:</td><td><div>1</div></td></tr><tr><td style="font-weight:bold;vertical-align:top;">server_protocol</td><td style="vertical-align:top;">:</td><td><div>HTTP/1.1</div></td></tr><tr><td style="font-weight:bold;vertical-align:top;">server_software</td><td style="vertical-align:top;">:</td><td><div>Microsoft-IIS/8.5</div></td></tr><tr><td style="font-weight:bold;vertical-align:top;">unencoded_url</td><td style="vertical-align:top;">:</td><td><div>/</div></td></tr><tr><td style="font-weight:bold;vertical-align:top;">url</td><td style="vertical-align:top;">:</td><td><div>/handler.web2py</div></td></tr><tr><td style="font-weight:bold;vertical-align:top;">web2py_path</td><td style="vertical-align:top;">:</td><td><div>C:\\Users\\unificace\\unificace\\web2py</div></td></tr><tr><td style="font-weight:bold;vertical-align:top;">web2py_version</td><td style="vertical-align:top;">:</td><td><div>2.16.1-stable+timestamp.2017.11.14.05.54.25</div></td></tr><tr><td style="font-weight:bold;vertical-align:top;">wfastcgi.http_x_original_url</td><td style="vertical-align:top;">:</td><td><div>/</div></td></tr><tr><td style="font-weight:bold;vertical-align:top;">wfastcgi_http_x_original_url</td><td style="vertical-align:top;">:</td><td><div>/</div></td></tr><tr><td style="font-weight:bold;vertical-align:top;">wsgi.errors</td><td style="vertical-align:top;">:</td><td><div>&lt;cStringIO.StringO object at 0x000000000512EB20&gt;</div></td></tr><tr><td style="font-weight:bold;vertical-align:top;">wsgi.input</td><td style="vertical-align:top;">:</td><td><div>&lt;cStringIO.StringI object at 0x000000000289AE00&gt;</div></td></tr><tr><td style="font-weight:bold;vertical-align:top;">wsgi.multiprocess</td><td style="vertical-align:top;">:</td><td><div>True</div></td></tr><tr><td style="font-weight:bold;vertical-align:top;">wsgi.multithread</td><td style="vertical-align:top;">:</td><td><div>False</div></td></tr><tr><td style="font-weight:bold;vertical-align:top;">wsgi.path_info</td><td style="vertical-align:top;">:</td><td><div>/</div></td></tr><tr><td style="font-weight:bold;vertical-align:top;">wsgi.query_string</td><td style="vertical-align:top;">:</td><td><div></div></td></tr><tr><td style="font-weight:bold;vertical-align:top;">wsgi.run_once</td><td style="vertical-align:top;">:</td><td><div>False</div></td></tr><tr><td style="font-weight:bold;vertical-align:top;">wsgi.script_name</td><td style="vertical-align:top;">:</td><td><div></div></td></tr><tr><td style="font-weight:bold;vertical-align:top;">wsgi.url_scheme</td><td style="vertical-align:top;">:</td><td><div>https</div></td></tr><tr><td style="font-weight:bold;vertical-align:top;">wsgi.version</td><td style="vertical-align:top;">:</td><td><div><table><tr><td><div>1</div></td></tr><tr><td><div>0</div></td></tr></table></div></td></tr><tr><td style="font-weight:bold;vertical-align:top;">wsgi_errors</td><td style="vertical-align:top;">:</td><td><div>&lt;cStringIO.StringO object at 0x000000000512EB20&gt;</div></td></tr><tr><td style="font-weight:bold;vertical-align:top;">wsgi_input</td><td style="vertical-align:top;">:</td><td><div>&lt;cStringIO.StringI object at 0x000000000289AE00&gt;</div></td></tr><tr><td style="font-weight:bold;vertical-align:top;">wsgi_multiprocess</td><td style="vertical-align:top;">:</td><td><div>True</div></td></tr><tr><td style="font-weight:bold;vertical-align:top;">wsgi_multithread</td><td style="vertical-align:top;">:</td><td><div>False</div></td></tr><tr><td style="font-weight:bold;vertical-align:top;">wsgi_path_info</td><td style="vertical-align:top;">:</td><td><div>/</div></td></tr><tr><td style="font-weight:bold;vertical-align:top;">wsgi_query_string</td><td style="vertical-align:top;">:</td><td><div></div></td></tr><tr><td style="font-weight:bold;vertical-align:top;">wsgi_run_once</td><td style="vertical-align:top;">:</td><td><div>False</div></td></tr><tr><td style="font-weight:bold;vertical-align:top;">wsgi_script_name</td><td style="vertical-align:top;">:</td><td><div></div></td></tr><tr><td style="font-weight:bold;vertical-align:top;">wsgi_url_scheme</td><td style="vertical-align:top;">:</td><td><div>https</div></td></tr><tr><td style="font-weight:bold;vertical-align:top;">wsgi_version</td><td style="vertical-align:top;">:</td><td><div><table><tr><td><div>1</div></td></tr><tr><td><div>0</div></td></tr></table></div></td></tr></table></div></td></tr><tr><td style="font-weight:bold;vertical-align:top;">extension</td><td style="vertical-align:top;">:</td><td><div>html</div></td></tr><tr><td style="font-weight:bold;vertical-align:top;">folder</td><td style="vertical-align:top;">:</td><td><div>C:\\Users\\unificace\\unificace\\web2py\\applications\\init\\</div></td></tr><tr><td style="font-weight:bold;vertical-align:top;">function</td><td style="vertical-align:top;">:</td><td><div>index</div></td></tr><tr><td style="font-weight:bold;vertical-align:top;">global_settings</td><td style="vertical-align:top;">:</td><td><div><table><tr><td style="font-weight:bold;vertical-align:top;">app_folders</td><td style="vertical-align:top;">:</td><td><div>set([&#x27;C:\\\\Users\\\\unificace\\\\unificace\\\\web2py\\\\applications\\\\init\\\\&#x27;])</div></td></tr><tr><td style="font-weight:bold;vertical-align:top;">applications_parent</td><td style="vertical-align:top;">:</td><td><div>C:\\Users\\unificace\\unificace\\web2py</div></td></tr><tr><td style="font-weight:bold;vertical-align:top;">db_sessions</td><td style="vertical-align:top;">:</td><td><div>set([])</div></td></tr><tr><td style="font-weight:bold;vertical-align:top;">debugging</td><td style="vertical-align:top;">:</td><td><div>False</div></td></tr><tr><td style="font-weight:bold;vertical-align:top;">gluon_parent</td><td style="vertical-align:top;">:</td><td><div>C:\\Users\\unificace\\unificace\\web2py</div></td></tr><tr><td style="font-weight:bold;vertical-align:top;">is_jython</td><td style="vertical-align:top;">:</td><td><div>False</div></td></tr><tr><td style="font-weight:bold;vertical-align:top;">is_py2</td><td style="vertical-align:top;">:</td><td><div>True</div></td></tr><tr><td style="font-weight:bold;vertical-align:top;">is_pypy</td><td style="vertical-align:top;">:</td><td><div>False</div></td></tr><tr><td style="font-weight:bold;vertical-align:top;">is_source</td><td style="vertical-align:top;">:</td><td><div>True</div></td></tr><tr><td style="font-weight:bold;vertical-align:top;">local_hosts</td><td style="vertical-align:top;">:</td><td><div><table><tr><td><div>S03VWPR00031</div></td></tr><tr><td><div>::ffff:127.0.0.1</div></td></tr><tr><td><div>::1</div></td></tr><tr><td><div>10.129.65.41</div></td></tr><tr><td><div>S03VWPR00031.cemtl.rtss.qc.ca</div></td></tr><tr><td><div>127.0.0.1</div></td></tr></table></div></td></tr><tr><td style="font-weight:bold;vertical-align:top;">web2py_version</td><td style="vertical-align:top;">:</td><td><div>2.16.1-stable+timestamp.2017.11.14.05.54.25</div></td></tr></table></div></td></tr><tr><td style="font-weight:bold;vertical-align:top;">is_https</td><td style="vertical-align:top;">:</td><td><div>True</div></td></tr><tr><td style="font-weight:bold;vertical-align:top;">is_local</td><td style="vertical-align:top;">:</td><td><div>False</div></td></tr><tr><td style="font-weight:bold;vertical-align:top;">is_restful</td><td style="vertical-align:top;">:</td><td><div>False</div></td></tr><tr><td style="font-weight:bold;vertical-align:top;">is_scheduler</td><td style="vertical-align:top;">:</td><td><div>False</div></td></tr><tr><td style="font-weight:bold;vertical-align:top;">is_shell</td><td style="vertical-align:top;">:</td><td><div>False</div></td></tr><tr><td style="font-weight:bold;vertical-align:top;">now</td><td style="vertical-align:top;">:</td><td><div>datetime.datetime(2023, 6, 18, 5, 43, 13, 509000)</div></td></tr><tr><td style="font-weight:bold;vertical-align:top;">raw_args</td><td style="vertical-align:top;">:</td><td><div></div></td></tr><tr><td style="font-weight:bold;vertical-align:top;">raw_extension</td><td style="vertical-align:top;">:</td><td><div>None</div></td></tr><tr><td style="font-weight:bold;vertical-align:top;">url</td><td style="vertical-align:top;">:</td><td><div>/</div></td></tr><tr><td style="font-weight:bold;vertical-align:top;">utcnow</td><td style="vertical-align:top;">:</td><td><div>datetime.datetime(2023, 6, 18, 9, 43, 13, 509000)</div></td></tr><tr><td style="font-weight:bold;vertical-align:top;">wsgi</td><td style="vertical-align:top;">:</td><td><div>&lt;gluon.main.LazyWSGI object at 0x0000000005131D30&gt;</div></td></tr></table></div>'
tRp66
sS'frames'
p67
(lp68
(dp69
S'file'
p70
S'C:\\Users\\unificace\\unificace\\web2py\\gluon\\restricted.py'
p71
sS'dump'
p72
(dp73
S'environment'
p74
S"{'A': <class 'gluon.html.A'>, 'ANY_OF': <class 'gluon.validators.ANY_OF'>, 'ASSIGNJS': <function ASSIGNJS>, 'AppConfig': <function AppConfig>, 'Auth': <class 'gluon.tools.Auth'>, 'B': <class 'gluon.html.B'>, 'BEAUTIFY': <class 'gluon.html.BEAUTIFY'>, 'BODY': <class 'gluon.html.BODY'>, 'BR': <class 'gluon.html.BR'>, 'BUTTON': <class 'gluon.html.BUTTON'>, ...}"
p75
sS'ccode'
p76
S'<code object <module> at 0000000002573730, file ...\\web2py\\applications\\init\\models\\db.py", line 14>'
p77
ssS'lnum'
p78
I219
sS'lines'
p79
(dp80
I214
S'    if environment is None:'
p81
sI215
S'        environment = {}'
p82
sI216
S"    environment['__file__'] = layer"
p83
sI217
S"    environment['__name__'] = '__restricted__'"
p84
sI218
S'    try:'
p85
sI219
S'        exec(ccode, environment)'
p86
sI220
S'    except HTTP:'
p87
sI221
S'        raise'
p88
sI222
S'    except RestrictedError:'
p89
sI223
S'        # do not encapsulate (obfuscate) the original RestrictedError'
p90
ssS'call'
p91
S'(ccode=<code object <module> at 0000000002573730, file ...\\web2py\\applications\\init\\models\\db.py", line 14>, environment={\'A\': <class \'gluon.html.A\'>, \'ANY_OF\': <class \'gluon.validators.ANY_OF\'>, \'ASSIGNJS\': <function ASSIGNJS>, \'AppConfig\': <function AppConfig>, \'Auth\': <class \'gluon.tools.Auth\'>, \'B\': <class \'gluon.html.B\'>, \'BEAUTIFY\': <class \'gluon.html.BEAUTIFY\'>, \'BODY\': <class \'gluon.html.BODY\'>, \'BR\': <class \'gluon.html.BR\'>, \'BUTTON\': <class \'gluon.html.BUTTON\'>, ...}, layer=r\'C:\\Users\\unificace\\unificace\\web2py\\applications\\init\\models\\db.py\', scode=<code object <module> at 0000000002573730, file ...\\web2py\\applications\\init\\models\\db.py", line 14>)'
p92
sS'func'
p93
S'restricted'
p94
sa(dp95
g70
S'C:\\Users\\unificace\\unificace\\web2py\\applications\\init\\models\\db.py'
p96
sg72
(dp97
S'username'
p98
S'undefined'
p99
sS'builtinFalse'
p100
S'False'
p101
sS'builtinTrue'
p102
S'True'
p103
sS'auth'
p104
S'<gluon.tools.Auth object>'
p105
sS'auth.define_tables'
p106
S'<bound method Auth.define_tables of <gluon.tools.Auth object>>'
p107
sS'signature'
p108
g99
ssg78
I194
sg79
(dp109
I192
S"auth.settings.actions_disabled=['register','change_password','request_reset_password','retrieve_username','profile']"
p110
sI193
S'#auth.define_tables(username=False, signature=False) #original'
p111
sI194
S'auth.define_tables(username=True, signature=False)'
p112
sI195
S'auth.settings.create_user_groups=False'
p113
sI196
S'#auth.settings.remember_me_form = False'
p114
sI197
S'auth.settings.remember_me_form = True'
p115
sI198
S''
sI189
S''
sI190
S''
sI191
S"#auth.settings.actions_disabled=['register','change_password','request_reset_password','retrieve_username','profile']"
p116
ssg91
S'()'
p117
sg93
S'<module>'
p118
sa(dp119
g70
S'C:\\Users\\unificace\\unificace\\web2py\\gluon\\tools.py'
p120
sg72
(dp121
S'username'
p122
g103
sS'migrate'
p123
g103
sS'self'
p124
S'<gluon.tools.Auth object>'
p125
sS'fake_migrate'
p126
g101
sS'global Auth'
p127
S"<class 'gluon.tools.Auth'>"
p128
sS')._table_signature_list'
p129
g99
sS'signature'
p130
g101
sS'builtinsuper'
p131
S"<type 'super'>"
p132
sS').define_tables'
p133
S'<bound method Auth.define_tables of <gluon.tools.Auth object>>'
p134
ssg78
I2216
sg79
(dp135
I2211
S'        if fake_migrate is None:'
p136
sI2212
S'            fake_migrate = db._fake_migrate'
p137
sI2213
S'        settings = self.settings'
p138
sI2214
S'        settings.enable_tokens = enable_tokens'
p139
sI2215
S'        signature_list = \\'
p140
sI2216
S'            super(Auth, self).define_tables(username, signature, migrate, fake_migrate)._table_signature_list'
p141
sI2217
S''
sI2218
S'        now = current.request.now'
p142
sI2219
S"        reference_table_user = 'reference %s' % settings.table_user_name"
p143
sI2220
S'        if settings.cas_domains:'
p144
ssg91
S'(self=<gluon.tools.Auth object>, username=True, signature=False, enable_tokens=False, migrate=True, fake_migrate=False)'
p145
sg93
S'define_tables'
p146
sa(dp147
g70
S'C:\\Users\\unificace\\unificace\\web2py\\gluon\\authapi.py'
p148
sg72
(dp149
S'fake_migrate'
p150
g101
ssg78
I402
sg79
(dp151
I397
S'                      requires=IS_INT_IN_RANGE(0, 10 ** 9)),'
p152
sI398
S'                *extra_fields,'
p153
sI399
S'                **dict('
p154
sI400
S'                    migrate=self._get_migrate('
p155
sI401
S'                        settings.table_permission_name, migrate),'
p156
sI402
S'                    fake_migrate=fake_migrate))'
p157
sI403
S'        if settings.table_event_name not in db.tables:'
p158
sI404
S'            db.define_table('
p159
sI405
S'                settings.table_event_name,'
p160
sI406
S"                Field('time_stamp', 'datetime',"
p161
ssg91
S'(self=<gluon.tools.Auth object>, username=True, signature=False, migrate=True, fake_migrate=False)'
p162
sg93
g146
sa(dp163
g70
S'C:\\Users\\unificace\\unificace\\web2py\\gluon\\packages\\dal\\pydal\\base.py'
p164
sg72
(dp165
S'fields'
p166
S'(<pydal.objects.Field object>, <pydal.objects.Field object>, <pydal.objects.Field object>, <pydal.objects.Field object>)'
p167
sS'self'
p168
S'<DAL uri="mssql4:******@S03VWPR00004.cemtl.rtss.qc.ca/unificace">'
p169
sS'args'
p170
S"{'fake_migrate': False, 'migrate': True}"
p171
sS'tablename'
p172
S"'auth_permission'"
p173
sS'table'
p174
g99
sS'self.lazy_define_table'
p175
S'<bound method DAL.lazy_define_table of <DAL uri=...******@S03VWPR00004.cemtl.rtss.qc.ca/unificace">>'
p176
ssg78
I586
sg79
(dp177
I581
S'                                  (tablename, invalid_args))'
p178
sI582
S'        if self._lazy_tables and tablename not in self._LAZY_TABLES:'
p179
sI583
S'            self._LAZY_TABLES[tablename] = (tablename, fields, args)'
p180
sI584
S'            table = None'
p181
sI585
S'        else:'
p182
sI586
S'            table = self.lazy_define_table(tablename, *fields, **args)'
p183
sI587
S'        if tablename not in self.tables:'
p184
sI588
S'            self.tables.append(tablename)'
p185
sI589
S'        return table'
p186
sI590
S''
ssg91
S'(self=<DAL uri="mssql4:******@S03VWPR00004.cemtl.rtss.qc.ca/unificace">, tablename=\'auth_permission\', *fields=(<pydal.objects.Field object>, <pydal.objects.Field object>, <pydal.objects.Field object>, <pydal.objects.Field object>), **args={\'fake_migrate\': False, \'migrate\': True})'
p187
sg93
S'define_table'
p188
sa(dp189
g70
S'C:\\Users\\unificace\\unificace\\web2py\\gluon\\packages\\dal\\pydal\\base.py'
p190
sg72
(dp191
S'polymodel'
p192
S'None'
p193
ssg78
I620
sg79
(dp194
I615
S'            try:'
p195
sI616
S'                GLOBAL_LOCKER.acquire()'
p196
sI617
S'                self._adapter.create_table('
p197
sI618
S'                    table, migrate=migrate,'
p198
sI619
S'                    fake_migrate=fake_migrate,'
p199
sI620
S'                    polymodel=polymodel)'
p200
sI621
S'            finally:'
p201
sI622
S'                GLOBAL_LOCKER.release()'
p202
sI623
S'        else:'
p203
sI624
S'            table._dbt = None'
p204
ssg91
S'(self=<DAL uri="mssql4:******@S03VWPR00004.cemtl.rtss.qc.ca/unificace">, tablename=\'auth_permission\', *fields=(<pydal.objects.Field object>, <pydal.objects.Field object>, <pydal.objects.Field object>, <pydal.objects.Field object>), **args={\'fake_migrate\': False, \'migrate\': True})'
p205
sg93
S'lazy_define_table'
p206
sa(dp207
g70
S'C:\\Users\\unificace\\unificace\\web2py\\gluon\\packages\\dal\\pydal\\adapters\\base.py'
p208
sg72
(dp209
S'self'
p210
S'<pydal.adapters.mssql.MSSQL4 object>'
p211
sS'args'
p212
S'(<Table auth_permission (id, group_id, name, table_name, record_id)>,)'
p213
sS'self.migrator'
p214
S'<pydal.migrator.Migrator object>'
p215
sS'self.migrator.create_table'
p216
S'<bound method Migrator.create_table of <pydal.migrator.Migrator object>>'
p217
sS'kwargs'
p218
S"{'fake_migrate': False, 'migrate': True, 'polymodel': None}"
p219
ssg78
I797
sg79
(dp220
I800
S'        super(SQLAdapter, self)._drop_table_cleanup(table)'
p221
sI801
S'        if table._dbt:'
p222
sI792
S''
sI793
S'    def bulk_insert(self, table, items):'
p223
sI794
S'        return [self.insert(table, item) for item in items]'
p224
sI795
S''
sI796
S'    def create_table(self, *args, **kwargs):'
p225
sI797
S'        return self.migrator.create_table(*args, **kwargs)'
p226
sI798
S''
sI799
S'    def _drop_table_cleanup(self, table):'
p227
ssg91
S"(self=<pydal.adapters.mssql.MSSQL4 object>, *args=(<Table auth_permission (id, group_id, name, table_name, record_id)>,), **kwargs={'fake_migrate': False, 'migrate': True, 'polymodel': None})"
p228
sg93
S'create_table'
p229
sa(dp230
g70
S'C:\\Users\\unificace\\unificace\\web2py\\gluon\\packages\\dal\\pydal\\migrator.py'
p231
sg72
(dp232
S'query'
p233
S'\'CREATE TABLE "auth_permission"(\\n    "id" INT IDE...e" VARCHAR(512) NULL,\\n    "record_id" INT NULL\\n);\''
p234
sS'self'
p235
S'<pydal.migrator.Migrator object>'
p236
sS'self.adapter'
p237
S'<pydal.adapters.mssql.MSSQL4 object>'
p238
sS'self.adapter.create_sequence_and_triggers'
p239
S'<bound method MSSQL4.create_sequence_and_triggers of <pydal.adapters.mssql.MSSQL4 object>>'
p240
sS'table'
p241
S'<Table auth_permission (id, group_id, name, table_name, record_id)>'
p242
ssg78
I277
sg79
(dp243
I272
S'            if table._dbt:'
p244
sI273
S"                self.log('timestamp: %s\\n%s\\n'"
p245
sI274
S'                         % (datetime.datetime.today().isoformat(),'
p246
sI275
S'                            query), table)'
p247
sI276
S'            if not fake_migrate:'
p248
sI277
S'                self.adapter.create_sequence_and_triggers(query, table)'
p249
sI278
S'                db.commit()'
p250
sI279
S'                # Postgres geom fields are added now,'
p251
sI280
S'                # after the table has been created'
p252
sI281
S'                for query in postcreation_fields:'
p253
ssg91
S'(self=<pydal.migrator.Migrator object>, table=<Table auth_permission (id, group_id, name, table_name, record_id)>, migrate=True, fake_migrate=False, polymodel=None)'
p254
sg93
g229
sa(dp255
g70
S'C:\\Users\\unificace\\unificace\\web2py\\gluon\\packages\\dal\\pydal\\adapters\\base.py'
p256
sg72
(dp257
S'query'
p258
S'\'CREATE TABLE "auth_permission"(\\n    "id" INT IDE...e" VARCHAR(512) NULL,\\n    "record_id" INT NULL\\n);\''
p259
sS'self'
p260
S'<pydal.adapters.mssql.MSSQL4 object>'
p261
sS'self.execute'
p262
S'<bound method MSSQL4.wrap of <pydal.adapters.mssql.MSSQL4 object>>'
p263
ssg78
I880
sg79
(dp264
I875
S'    @with_connection'
p265
sI876
S'    def rollback_prepared(self, key):'
p266
sI877
S'        self.connection.rollback()'
p267
sI878
S''
sI879
S'    def create_sequence_and_triggers(self, query, table, **args):'
p268
sI880
S'        self.execute(query)'
p269
sI881
S''
sI882
S'    def sqlsafe_table(self, tablename, original_tablename=None):'
p270
sI883
S'        if original_tablename is not None:'
p271
sI884
S'            return self.dialect.alias(original_tablename, tablename)'
p272
ssg91
S'(self=<pydal.adapters.mssql.MSSQL4 object>, query=\'CREATE TABLE "auth_permission"(\\n    "id" INT IDE...e" VARCHAR(512) NULL,\\n    "record_id" INT NULL\\n);\', table=<Table auth_permission (id, group_id, name, table_name, record_id)>, **args={})'
p273
sg93
S'create_sequence_and_triggers'
p274
sa(dp275
g70
S'C:\\Users\\unificace\\unificace\\web2py\\gluon\\packages\\dal\\pydal\\adapters\\__init__.py'
p276
sg72
(dp277
S'kwargs'
p278
S'{}'
p279
sS'args'
p280
S'(<pydal.adapters.mssql.MSSQL4 object>, \'CREATE TABLE "auth_permission"(\\n    "id" INT IDE...e" VARCHAR(512) NULL,\\n    "record_id" INT NULL\\n);\')'
p281
sS'f'
S'<function execute>'
p282
ssg78
I67
sg79
(dp283
I64
S'            if len(args) > 1:'
p284
sI65
S'                raise ValueError(args[1])'
p285
sI66
S"            raise RuntimeError('no connection available')"
p286
sI67
S'        return f(*args, **kwargs)'
p287
sI68
S'    return wrap'
p288
sI69
S''
sI70
S''
sI71
S'from .base import SQLAdapter, NoSQLAdapter'
p289
sI62
S'    def wrap(*args, **kwargs):'
p290
sI63
S'        if not args[0].connection:'
p291
ssg91
S'(*args=(<pydal.adapters.mssql.MSSQL4 object>, \'CREATE TABLE "auth_permission"(\\n    "id" INT IDE...e" VARCHAR(512) NULL,\\n    "record_id" INT NULL\\n);\'), **kwargs={})'
p292
sg93
S'wrap'
p293
sa(dp294
g70
S'C:\\Users\\unificace\\unificace\\web2py\\gluon\\packages\\dal\\pydal\\adapters\\base.py'
p295
sg72
(dp296
S'rv'
p297
g99
sS'self'
p298
S'<pydal.adapters.mssql.MSSQL4 object>'
p299
sS'args'
p300
S'(\'CREATE TABLE "auth_permission"(\\n    "id" INT IDE...e" VARCHAR(512) NULL,\\n    "record_id" INT NULL\\n);\',)'
p301
sS'self.cursor'
p302
S'<gluon.contrib.pypyodbc.Cursor instance>'
p303
sS'command'
p304
S'\'CREATE TABLE "auth_permission"(\\n    "id" INT IDE...e" VARCHAR(512) NULL,\\n    "record_id" INT NULL\\n);\''
p305
sS'self.cursor.execute'
p306
S'<bound method Cursor.execute of <gluon.contrib.pypyodbc.Cursor instance>>'
p307
sS'kwargs'
p308
g279
ssg78
I412
sg79
(dp309
I416
S''
sI407
S'    def execute(self, *args, **kwargs):'
p310
sI408
S'        command = self.filter_sql_command(args[0])'
p311
sI409
S'        handlers = self._build_handlers_for_execution()'
p312
sI410
S'        for handler in handlers:'
p313
sI411
S'            handler.before_execute(command)'
p314
sI412
S'        rv = self.cursor.execute(command, *args[1:], **kwargs)'
p315
sI413
S'        for handler in handlers:'
p316
sI414
S'            handler.after_execute(command)'
p317
sI415
S'        return rv'
p318
ssg91
S'(self=<pydal.adapters.mssql.MSSQL4 object>, *args=(\'CREATE TABLE "auth_permission"(\\n    "id" INT IDE...e" VARCHAR(512) NULL,\\n    "record_id" INT NULL\\n);\',), **kwargs={})'
p319
sg93
S'execute'
p320
sa(dp321
g70
S'C:\\Users\\unificace\\unificace\\web2py\\gluon\\contrib\\pypyodbc.py'
p322
sg72
(dp323
S'query_string'
p324
S'\'CREATE TABLE "auth_permission"(\\n    "id" INT IDE...e" VARCHAR(512) NULL,\\n    "record_id" INT NULL\\n);\''
p325
sS'self'
p326
S'<gluon.contrib.pypyodbc.Cursor instance>'
p327
sS'self.execdirect'
p328
S'<bound method Cursor.execdirect of <gluon.contrib.pypyodbc.Cursor instance>>'
p329
ssg78
I1605
sg79
(dp330
I1600
S'                self._NumOfRows()'
p331
sI1601
S'                self._UpdateDesc()'
p332
sI1602
S'                #self._BindCols()'
p333
sI1603
S''
sI1604
S'        else:'
p334
sI1605
S'            self.execdirect(query_string)'
p335
sI1606
S'        return self'
p336
sI1607
S''
sI1608
S''
sI1609
S'    def _SQLExecute(self):'
p337
ssg91
S'(self=<gluon.contrib.pypyodbc.Cursor instance>, query_string=\'CREATE TABLE "auth_permission"(\\n    "id" INT IDE...e" VARCHAR(512) NULL,\\n    "record_id" INT NULL\\n);\', params=None, many_mode=False, call_mode=False)'
p338
sg93
g320
sa(dp339
g70
S'C:\\Users\\unificace\\unificace\\web2py\\gluon\\contrib\\pypyodbc.py'
p340
sg72
(dp341
S'self'
p342
S'<gluon.contrib.pypyodbc.Cursor instance>'
p343
sS'global check_success'
p344
S'<function check_success>'
p345
sS'ret'
p346
S'-1'
p347
ssg78
I1631
sg79
(dp348
I1632
S'        self._NumOfRows()'
p349
sI1633
S'        self._UpdateDesc()'
p350
sI1634
S'        #self._BindCols()'
p351
sI1635
S'        return self'
p352
sI1626
S'            c_query_string = wchar_pointer(UCS_buf(query_string))'
p353
sI1627
S'            ret = ODBC_API.SQLExecDirectW(self.stmt_h, c_query_string, len(query_string))'
p354
sI1628
S'        else:'
p355
sI1629
S'            c_query_string = ctypes.c_char_p(query_string)'
p356
sI1630
S'            ret = ODBC_API.SQLExecDirect(self.stmt_h, c_query_string, len(query_string))'
p357
sI1631
S'        check_success(self, ret)'
p358
ssg91
S'(self=<gluon.contrib.pypyodbc.Cursor instance>, query_string=\'CREATE TABLE "auth_permission"(\\n    "id" INT IDE...e" VARCHAR(512) NULL,\\n    "record_id" INT NULL\\n);\')'
p359
sg93
S'execdirect'
p360
sa(dp361
g70
S'C:\\Users\\unificace\\unificace\\web2py\\gluon\\contrib\\pypyodbc.py'
p362
sg72
(dp363
S'ODBC_obj'
p364
S'<gluon.contrib.pypyodbc.Cursor instance>'
p365
sS'global ctrl_err'
p366
S'<function ctrl_err>'
p367
sS'ret'
p368
S'-1'
p369
sS'ODBC_obj.stmt_h'
p370
S'c_void_p(13166752L)'
p371
sS'global SQL_HANDLE_STMT'
p372
S'3'
sS'ODBC_obj.ansi'
p373
g101
ssg78
I986
sg79
(dp374
I981
S''
sI982
S'def check_success(ODBC_obj, ret):'
p375
sI983
S'    """ Validate return value, if not success, raise exceptions based on the handle """'
p376
sI984
S'    if ret not in (SQL_SUCCESS, SQL_SUCCESS_WITH_INFO, SQL_NO_DATA):'
p377
sI985
S'        if isinstance(ODBC_obj, Cursor):'
p378
sI986
S'            ctrl_err(SQL_HANDLE_STMT, ODBC_obj.stmt_h, ret, ODBC_obj.ansi)'
p379
sI987
S'        elif isinstance(ODBC_obj, Connection):'
p380
sI988
S'            ctrl_err(SQL_HANDLE_DBC, ODBC_obj.dbc_h, ret, ODBC_obj.ansi)'
p381
sI989
S'        else:'
p382
sI990
S'            ctrl_err(SQL_HANDLE_ENV, ODBC_obj, ret, False)'
p383
ssg91
S'(ODBC_obj=<gluon.contrib.pypyodbc.Cursor instance>, ret=-1)'
p384
sg93
S'check_success'
p385
sa(dp386
g70
S'C:\\Users\\unificace\\unificace\\web2py\\gluon\\contrib\\pypyodbc.py'
p387
sg72
(dp388
S'state'
p389
S"u'42S01'"
p390
sS'err_text'
p391
S'u"[42S01] [Microsoft][ODBC SQL Server Driver][SQ... object named \'auth_permission\' in the database."'
p392
sS'global ProgrammingError'
p393
S"<class 'gluon.contrib.pypyodbc.ProgrammingError'>"
p394
ssg78
I954
sg79
(dp395
I949
S'            #No more data, I can raise'
p396
sI950
S'            #print(err_list[0][1])'
p397
sI951
S'            state = err_list[0][0]'
p398
sI952
S"            err_text = raw_s('[')+state+raw_s('] ')+err_list[0][1]"
p399
sI953
S"            if state[:2] in (raw_s('24'),raw_s('25'),raw_s('42')):"
p400
sI954
S'                raise ProgrammingError(state,err_text)'
p401
sI955
S"            elif state[:2] in (raw_s('22')):"
p402
sI956
S'                raise DataError(state,err_text)'
p403
sI957
S"            elif state[:2] in (raw_s('23')) or state == raw_s('40002'):"
p404
sI958
S'                raise IntegrityError(state,err_text)'
p405
ssg91
S'(ht=3, h=c_void_p(13166752L), val_ret=-1, ansi=False)'
p406
sg93
S'ctrl_err'
p407
sasS'pyver'
p408
S'Python 2.7.13: c:\\python27\\python.exe (prefix: c:\\python27)'
p409
sS'session'
p410
g65
(S's\x1a\x00\x00\x00<div><table></table></div>'
tRp411
sS'etype'
p412
S"<class 'gluon.contrib.pypyodbc.ProgrammingError'>"
p413
sS'date'
p414
S'Sun Jun 18 05:43:18 2023'
p415
sS'response'
p416
g65
(S's!\x16\x00\x00<div><table><tr><td style="font-weight:bold;vertical-align:top;">body</td><td style="vertical-align:top;">:</td><td><div>&lt;cStringIO.StringO object at 0x0000000006185E30&gt;</div></td></tr><tr><td style="font-weight:bold;vertical-align:top;">cookies</td><td style="vertical-align:top;">:</td><td><div><table><tr><td style="font-weight:bold;vertical-align:top;">session_id_init</td><td style="vertical-align:top;">:</td><td><div>10.129.64.51-0188fcbb-70bb-467a-9d4c-ab8857c5adb6<table><tr><td style="font-weight:bold;vertical-align:top;">comment</td><td style="vertical-align:top;">:</td><td><div></div></td></tr><tr><td style="font-weight:bold;vertical-align:top;">domain</td><td style="vertical-align:top;">:</td><td><div></div></td></tr><tr><td style="font-weight:bold;vertical-align:top;">expires</td><td style="vertical-align:top;">:</td><td><div></div></td></tr><tr><td style="font-weight:bold;vertical-align:top;">httponly</td><td style="vertical-align:top;">:</td><td><div></div></td></tr><tr><td style="font-weight:bold;vertical-align:top;">max-age</td><td style="vertical-align:top;">:</td><td><div></div></td></tr><tr><td style="font-weight:bold;vertical-align:top;">path</td><td style="vertical-align:top;">:</td><td><div>/</div></td></tr><tr><td style="font-weight:bold;vertical-align:top;">secure</td><td style="vertical-align:top;">:</td><td><div></div></td></tr><tr><td style="font-weight:bold;vertical-align:top;">version</td><td style="vertical-align:top;">:</td><td><div></div></td></tr></table></div></td></tr></table></div></td></tr><tr><td style="font-weight:bold;vertical-align:top;">delimiters</td><td style="vertical-align:top;">:</td><td><div><table><tr><td><div>{{</div></td></tr><tr><td><div>}}</div></td></tr></table></div></td></tr><tr><td style="font-weight:bold;vertical-align:top;">files</td><td style="vertical-align:top;">:</td><td><div><table></table></div></td></tr><tr><td style="font-weight:bold;vertical-align:top;">flash</td><td style="vertical-align:top;">:</td><td><div></div></td></tr><tr><td style="font-weight:bold;vertical-align:top;">form_label_separator</td><td style="vertical-align:top;">:</td><td><div></div></td></tr><tr><td style="font-weight:bold;vertical-align:top;">formstyle</td><td style="vertical-align:top;">:</td><td><div>bootstrap3_inline</div></td></tr><tr><td style="font-weight:bold;vertical-align:top;">generic_patterns</td><td style="vertical-align:top;">:</td><td><div><table></table></div></td></tr><tr><td style="font-weight:bold;vertical-align:top;">headers</td><td style="vertical-align:top;">:</td><td><div><table><tr><td style="font-weight:bold;vertical-align:top;">X-Powered-By</td><td style="vertical-align:top;">:</td><td><div>web2py</div></td></tr></table></div></td></tr><tr><td style="font-weight:bold;vertical-align:top;">menu</td><td style="vertical-align:top;">:</td><td><div><table></table></div></td></tr><tr><td style="font-weight:bold;vertical-align:top;">meta</td><td style="vertical-align:top;">:</td><td><div><table></table></div></td></tr><tr><td style="font-weight:bold;vertical-align:top;">models_to_run</td><td style="vertical-align:top;">:</td><td><div><table><tr><td><div>^\\w+\\.py$</div></td></tr><tr><td><div>^default/\\w+\\.py$</div></td></tr><tr><td><div>^default/index/\\w+\\.py$</div></td></tr></table></div></td></tr><tr><td style="font-weight:bold;vertical-align:top;">postprocessing</td><td style="vertical-align:top;">:</td><td><div><table></table></div></td></tr><tr><td style="font-weight:bold;vertical-align:top;">session_client</td><td style="vertical-align:top;">:</td><td><div>10.129.64.51</div></td></tr><tr><td style="font-weight:bold;vertical-align:top;">session_cookie_compression_level</td><td style="vertical-align:top;">:</td><td><div>None</div></td></tr><tr><td style="font-weight:bold;vertical-align:top;">session_cookie_expires</td><td style="vertical-align:top;">:</td><td><div>None</div></td></tr><tr><td style="font-weight:bold;vertical-align:top;">session_data_name</td><td style="vertical-align:top;">:</td><td><div>session_data_init</div></td></tr><tr><td style="font-weight:bold;vertical-align:top;">session_file</td><td style="vertical-align:top;">:</td><td><div>None</div></td></tr><tr><td style="font-weight:bold;vertical-align:top;">session_filename</td><td style="vertical-align:top;">:</td><td><div>C:\\Users\\unificace\\unificace\\web2py\\applications\\init\\sessions\\10.129.64.51-0188fcbb-70bb-467a-9d4c-ab8857c5adb6</div></td></tr><tr><td style="font-weight:bold;vertical-align:top;">session_hash</td><td style="vertical-align:top;">:</td><td><div>c0762cbf4baf7f9af97c051e7fcb8083</div></td></tr><tr><td style="font-weight:bold;vertical-align:top;">session_id</td><td style="vertical-align:top;">:</td><td><div>10.129.64.51-0188fcbb-70bb-467a-9d4c-ab8857c5adb6</div></td></tr><tr><td style="font-weight:bold;vertical-align:top;">session_id_name</td><td style="vertical-align:top;">:</td><td><div>session_id_init</div></td></tr><tr><td style="font-weight:bold;vertical-align:top;">session_masterapp</td><td style="vertical-align:top;">:</td><td><div>init</div></td></tr><tr><td style="font-weight:bold;vertical-align:top;">session_new</td><td style="vertical-align:top;">:</td><td><div>True</div></td></tr><tr><td style="font-weight:bold;vertical-align:top;">session_storage_type</td><td style="vertical-align:top;">:</td><td><div>file</div></td></tr><tr><td style="font-weight:bold;vertical-align:top;">status</td><td style="vertical-align:top;">:</td><td><div>200</div></td></tr><tr><td style="font-weight:bold;vertical-align:top;">view</td><td style="vertical-align:top;">:</td><td><div>default/index.html</div></td></tr></table></div>'
tRp417
sS'locals'
p418
(dp419
S'err_list'
p420
S'[(u\'42S01\', u"[Microsoft][ODBC SQL Server Driver][SQL Server... object named \'auth_permission\' in the database.", 2714)]'
p421
sS'h'
S'c_void_p(13166752L)'
p422
sS'raw_s'
p423
S"<type 'unicode'>"
p424
sS'ht'
p425
S'3'
sS'Buffer_len'
p426
S'c_short(0)'
p427
sS'ansi'
p428
g101
sS'state'
p429
S"u'42S01'"
p430
sS'ODBC_func'
p431
S'<_FuncPtr object>'
p432
sS'ret'
p433
S'100'
p434
sS'Message'
p435
S'<ctypes.c_wchar_Array_4096 object>'
p436
sS'val_ret'
p437
S'-1'
p438
sS'number_errors'
p439
S'2'
sS'NativeError'
p440
S'c_long(2714)'
p441
sS'err_text'
p442
S'u"[42S01] [Microsoft][ODBC SQL Server Driver][SQ... object named \'auth_permission\' in the database."'
p443
sssS'traceback'
p444
S'Traceback (most recent call last):\n  File ".\\gluon\\restricted.py", line 219, in restricted\n    exec(ccode, environment)\n  File "C:\\Users\\unificace\\unificace\\web2py\\applications\\init\\models\\db.py", line 194, in <module>\n    auth.define_tables(username=True, signature=False)\n  File ".\\gluon\\tools.py", line 2216, in define_tables\n    super(Auth, self).define_tables(username, signature, migrate, fake_migrate)._table_signature_list\n  File ".\\gluon\\authapi.py", line 402, in define_tables\n    fake_migrate=fake_migrate))\n  File "C:\\Users\\unificace\\unificace\\web2py\\gluon\\packages\\dal\\pydal\\base.py", line 586, in define_table\n    table = self.lazy_define_table(tablename, *fields, **args)\n  File "C:\\Users\\unificace\\unificace\\web2py\\gluon\\packages\\dal\\pydal\\base.py", line 620, in lazy_define_table\n    polymodel=polymodel)\n  File "C:\\Users\\unificace\\unificace\\web2py\\gluon\\packages\\dal\\pydal\\adapters\\base.py", line 797, in create_table\n    return self.migrator.create_table(*args, **kwargs)\n  File "C:\\Users\\unificace\\unificace\\web2py\\gluon\\packages\\dal\\pydal\\migrator.py", line 277, in create_table\n    self.adapter.create_sequence_and_triggers(query, table)\n  File "C:\\Users\\unificace\\unificace\\web2py\\gluon\\packages\\dal\\pydal\\adapters\\base.py", line 880, in create_sequence_and_triggers\n    self.execute(query)\n  File "C:\\Users\\unificace\\unificace\\web2py\\gluon\\packages\\dal\\pydal\\adapters\\__init__.py", line 67, in wrap\n    return f(*args, **kwargs)\n  File "C:\\Users\\unificace\\unificace\\web2py\\gluon\\packages\\dal\\pydal\\adapters\\base.py", line 412, in execute\n    rv = self.cursor.execute(command, *args[1:], **kwargs)\n  File ".\\gluon\\contrib\\pypyodbc.py", line 1605, in execute\n    self.execdirect(query_string)\n  File ".\\gluon\\contrib\\pypyodbc.py", line 1631, in execdirect\n    check_success(self, ret)\n  File ".\\gluon\\contrib\\pypyodbc.py", line 986, in check_success\n    ctrl_err(SQL_HANDLE_STMT, ODBC_obj.stmt_h, ret, ODBC_obj.ansi)\n  File ".\\gluon\\contrib\\pypyodbc.py", line 954, in ctrl_err\n    raise ProgrammingError(state,err_text)\nProgrammingError: (u\'42S01\', u"[42S01] [Microsoft][ODBC SQL Server Driver][SQL Server]There is already an object named \'auth_permission\' in the database.")\n'
p445
s.