(dp1
S'output'
p2
S"<type 'exceptions.MemoryError'> "
p3
sS'layer'
p4
S'C:\\Users\\unificace\\unificace\\web2py\\applications\\init\\models\\db.py'
p5
sS'code'
p6
S'<code object <module> at 000000000232F7B0, file "C:\\Users\\unificace\\unificace\\web2py\\applications\\init\\models\\db.py", line 14>'
p7
sS'snapshot'
p8
(dp9
sS'traceback'
p10
S'Traceback (most recent call last):\n  File ".\\gluon\\restricted.py", line 219, in restricted\n    exec(ccode, environment)\n  File "C:\\Users\\unificace\\unificace\\web2py\\applications\\init\\models\\db.py", line 989, in <module>\n    Field(\'files\', \'upload\', uploadfield=\'file_data\',label=T(\' \'),comment=T("Ficher \xc3\xa0 importer (le fichier doit \xc3\xaatre en format CSV point-virgule; en Excel vous devez enregister sous CSV point-virgule)"),represent=lambda value,row:A(\'Ficher \xc3\xa0 importer\' if value else \'\',_href=URL(\'download\', args=value))),\n  File "C:\\Users\\unificace\\unificace\\web2py\\gluon\\packages\\dal\\pydal\\objects.py", line 1637, in __init__\n    self.widget = widget\nMemoryError\n'
p11
s.