(dp1
S'output'
p2
S"<type 'exceptions.MemoryError'> "
p3
sS'layer'
p4
S'C:\\Users\\unificace\\unificace\\web2py\\applications\\init\\models\\db.py'
p5
sS'code'
p6
S'<code object <module> at 000000000269F7B0, file "C:\\Users\\unificace\\unificace\\web2py\\applications\\init\\models\\db.py", line 14>'
p7
sS'snapshot'
p8
(dp9
sS'traceback'
p10
S'Traceback (most recent call last):\n  File ".\\gluon\\restricted.py", line 219, in restricted\n    exec(ccode, environment)\n  File "C:\\Users\\unificace\\unificace\\web2py\\applications\\init\\models\\db.py", line 1235, in <module>\n    Field(\'url_printers\',requires=IS_NOT_EMPTY(),label=T("URLs du imprimante"),comment="URLs du imprimante s\xc3\xa9par\xc3\xa9 par <<;>>, par example: \\\\\\\\s-print2\\la-507-16-060020;\\\\\\\\s-print2\\LA-507-00-054056"),\n  File "C:\\Users\\unificace\\unificace\\web2py\\gluon\\packages\\dal\\pydal\\objects.py", line 1637, in __init__\n    self.widget = widget\nMemoryError\n'
p11
s.