(dp1
S'output'
p2
S"<type 'exceptions.MemoryError'> "
p3
sS'layer'
p4
S'C:\\Users\\unificace\\unificace\\web2py\\applications\\init\\models\\db.py'
p5
sS'code'
p6
S'<code object <module> at 000000000276C930, file "C:\\Users\\unificace\\unificace\\web2py\\applications\\init\\models\\db.py", line 14>'
p7
sS'snapshot'
p8
(dp9
S'exception'
p10
(dp11
S'__getslice__'
p12
S"<method-wrapper '__getslice__' of exceptions.MemoryError object>"
p13
sS'__str__'
p14
S"<method-wrapper '__str__' of exceptions.MemoryError object>"
p15
sS'__reduce__'
p16
S'<built-in method __reduce__ of exceptions.MemoryError object>'
p17
sS'__dict__'
p18
S'{}'
p19
sS'message'
p20
S"''"
p21
sS'__sizeof__'
p22
S'<built-in method __sizeof__ of exceptions.MemoryError object>'
p23
sS'__init__'
p24
S"<method-wrapper '__init__' of exceptions.MemoryError object>"
p25
sS'__setattr__'
p26
S"<method-wrapper '__setattr__' of exceptions.MemoryError object>"
p27
sS'__reduce_ex__'
p28
S'<built-in method __reduce_ex__ of exceptions.MemoryError object>'
p29
sS'__new__'
p30
S'<built-in method __new__ of type object>'
p31
sS'__format__'
p32
S'<built-in method __format__ of exceptions.MemoryError object>'
p33
sS'__class__'
p34
S"<type 'exceptions.MemoryError'>"
p35
sS'__doc__'
p36
S"'Out of memory.'"
p37
sS'__getitem__'
p38
S"<method-wrapper '__getitem__' of exceptions.MemoryError object>"
p39
sS'__setstate__'
p40
S'<built-in method __setstate__ of exceptions.MemoryError object>'
p41
sS'__getattribute__'
p42
S"<method-wrapper '__getattribute__' of exceptions.MemoryError object>"
p43
sS'args'
p44
S'()'
p45
sS'__subclasshook__'
p46
S'<built-in method __subclasshook__ of type object>'
p47
sS'__unicode__'
p48
S'<built-in method __unicode__ of exceptions.MemoryError object>'
p49
sS'__delattr__'
p50
S"<method-wrapper '__delattr__' of exceptions.MemoryError object>"
p51
sS'__repr__'
p52
S"<method-wrapper '__repr__' of exceptions.MemoryError object>"
p53
sS'__hash__'
p54
S"<method-wrapper '__hash__' of exceptions.MemoryError object>"
p55
ssS'evalue'
p56
S''
sS'request'
p57
cgluon.html
XML_unpickle
p58
(S's\x05d\x00\x00<div><table><tr><td style="font-weight:bold;vertical-align:top;">ajax</td><td style="vertical-align:top;">:</td><td><div>False</div></td></tr><tr><td style="font-weight:bold;vertical-align:top;">application</td><td style="vertical-align:top;">:</td><td><div>init</div></td></tr><tr><td style="font-weight:bold;vertical-align:top;">args</td><td style="vertical-align:top;">:</td><td><div><table></table></div></td></tr><tr><td style="font-weight:bold;vertical-align:top;">cid</td><td style="vertical-align:top;">:</td><td><div>None</div></td></tr><tr><td style="font-weight:bold;vertical-align:top;">client</td><td style="vertical-align:top;">:</td><td><div>10.129.64.51</div></td></tr><tr><td style="font-weight:bold;vertical-align:top;">controller</td><td style="vertical-align:top;">:</td><td><div>default</div></td></tr><tr><td style="font-weight:bold;vertical-align:top;">cookies</td><td style="vertical-align:top;">:</td><td><div><table></table></div></td></tr><tr><td style="font-weight:bold;vertical-align:top;">env</td><td style="vertical-align:top;">:</td><td><div><table><tr><td style="font-weight:bold;vertical-align:top;">APPL_MD_PATH</td><td style="vertical-align:top;">:</td><td><div>/LM/W3SVC/2/ROOT</div></td></tr><tr><td style="font-weight:bold;vertical-align:top;">APPL_PHYSICAL_PATH</td><td style="vertical-align:top;">:</td><td><div>C:\\Users\\unificace\\unificace\\web2py\\</div></td></tr><tr><td style="font-weight:bold;vertical-align:top;">APP_POOL_CONFIG</td><td style="vertical-align:top;">:</td><td><div>C:\\inetpub\\temp\\apppools\\unificace\\unificace.config</div></td></tr><tr><td style="font-weight:bold;vertical-align:top;">APP_POOL_ID</td><td style="vertical-align:top;">:</td><td><div>unificace</div></td></tr><tr><td style="font-weight:bold;vertical-align:top;">AUTH_PASSWORD</td><td style="vertical-align:top;">:</td><td><div></div></td></tr><tr><td style="font-weight:bold;vertical-align:top;">AUTH_TYPE</td><td style="vertical-align:top;">:</td><td><div></div></td></tr><tr><td style="font-weight:bold;vertical-align:top;">AUTH_USER</td><td style="vertical-align:top;">:</td><td><div></div></td></tr><tr><td style="font-weight:bold;vertical-align:top;">CERT_COOKIE</td><td style="vertical-align:top;">:</td><td><div></div></td></tr><tr><td style="font-weight:bold;vertical-align:top;">CERT_FLAGS</td><td style="vertical-align:top;">:</td><td><div></div></td></tr><tr><td style="font-weight:bold;vertical-align:top;">CERT_ISSUER</td><td style="vertical-align:top;">:</td><td><div></div></td></tr><tr><td style="font-weight:bold;vertical-align:top;">CERT_SERIALNUMBER</td><td style="vertical-align:top;">:</td><td><div></div></td></tr><tr><td style="font-weight:bold;vertical-align:top;">CERT_SUBJECT</td><td style="vertical-align:top;">:</td><td><div></div></td></tr><tr><td style="font-weight:bold;vertical-align:top;">CONTENT_LENGTH</td><td style="vertical-align:top;">:</td><td><div>0</div></td></tr><tr><td style="font-weight:bold;vertical-align:top;">CONTENT_TYPE</td><td style="vertical-align:top;">:</td><td><div></div></td></tr><tr><td style="font-weight:bold;vertical-align:top;">DOCUMENT_ROOT</td><td style="vertical-align:top;">:</td><td><div>C:\\Users\\unificace\\unificace\\web2py</div></td></tr><tr><td style="font-weight:bold;vertical-align:top;">GATEWAY_INTERFACE</td><td style="vertical-align:top;">:</td><td><div>CGI/1.1</div></td></tr><tr><td style="font-weight:bold;vertical-align:top;">HTTPS</td><td style="vertical-align:top;">:</td><td><div>on</div></td></tr><tr><td style="font-weight:bold;vertical-align:top;">HTTPS_KEYSIZE</td><td style="vertical-align:top;">:</td><td><div>256</div></td></tr><tr><td style="font-weight:bold;vertical-align:top;">HTTPS_SECRETKEYSIZE</td><td style="vertical-align:top;">:</td><td><div>2048</div></td></tr><tr><td style="font-weight:bold;vertical-align:top;">HTTPS_SERVER_ISSUER</td><td style="vertical-align:top;">:</td><td><div>C=US, O=&quot;Entrust, Inc.&quot;, OU=See www.entrust.net/legal-terms, OU=&quot;(c) 2012 Entrust, Inc. - for authorized use only&quot;, CN=Entrust Certification Authority - L1K</div></td></tr><tr><td style="font-weight:bold;vertical-align:top;">HTTPS_SERVER_SUBJECT</td><td style="vertical-align:top;">:</td><td><div>C=CA, S=Quebec, L=Quebec, O=Minist\xe8re de la sant\xe9 et des services sociaux du Qu\xe9bec, CN=*.cemtl.rtss.qc.ca</div></td></tr><tr><td style="font-weight:bold;vertical-align:top;">HTTP_CONNECTION</td><td style="vertical-align:top;">:</td><td><div>Close</div></td></tr><tr><td style="font-weight:bold;vertical-align:top;">HTTP_CONTENT_LENGTH</td><td style="vertical-align:top;">:</td><td><div>0</div></td></tr><tr><td style="font-weight:bold;vertical-align:top;">HTTP_HOST</td><td style="vertical-align:top;">:</td><td><div>10.129.65.41:443</div></td></tr><tr><td style="font-weight:bold;vertical-align:top;">HTTP_X_ORIGINAL_URL</td><td style="vertical-align:top;">:</td><td><div>/</div></td></tr><tr><td style="font-weight:bold;vertical-align:top;">IIS_UrlRewriteModule</td><td style="vertical-align:top;">:</td><td><div>7.1.1980.0</div></td></tr><tr><td style="font-weight:bold;vertical-align:top;">IIS_WasUrlRewritten</td><td style="vertical-align:top;">:</td><td><div>1</div></td></tr><tr><td style="font-weight:bold;vertical-align:top;">INSTANCE_ID</td><td style="vertical-align:top;">:</td><td><div>2</div></td></tr><tr><td style="font-weight:bold;vertical-align:top;">INSTANCE_META_PATH</td><td style="vertical-align:top;">:</td><td><div>/LM/W3SVC/2</div></td></tr><tr><td style="font-weight:bold;vertical-align:top;">INSTANCE_NAME</td><td style="vertical-align:top;">:</td><td><div>UNIFICACE</div></td></tr><tr><td style="font-weight:bold;vertical-align:top;">LOCAL_ADDR</td><td style="vertical-align:top;">:</td><td><div>10.129.65.41</div></td></tr><tr><td style="font-weight:bold;vertical-align:top;">LOGON_USER</td><td style="vertical-align:top;">:</td><td><div></div></td></tr><tr><td style="font-weight:bold;vertical-align:top;">PATH_INFO</td><td style="vertical-align:top;">:</td><td><div>/</div></td></tr><tr><td style="font-weight:bold;vertical-align:top;">PATH_TRANSLATED</td><td style="vertical-align:top;">:</td><td><div>C:\\Users\\unificace\\unificace\\web2py\\handler.web2py\\</div></td></tr><tr><td style="font-weight:bold;vertical-align:top;">QUERY_STRING</td><td style="vertical-align:top;">:</td><td><div></div></td></tr><tr><td style="font-weight:bold;vertical-align:top;">REMOTE_ADDR</td><td style="vertical-align:top;">:</td><td><div>10.129.64.51</div></td></tr><tr><td style="font-weight:bold;vertical-align:top;">REMOTE_HOST</td><td style="vertical-align:top;">:</td><td><div>10.129.64.51</div></td></tr><tr><td style="font-weight:bold;vertical-align:top;">REMOTE_PORT</td><td style="vertical-align:top;">:</td><td><div>56954</div></td></tr><tr><td style="font-weight:bold;vertical-align:top;">REMOTE_USER</td><td style="vertical-align:top;">:</td><td><div></div></td></tr><tr><td style="font-weight:bold;vertical-align:top;">REQUEST_METHOD</td><td style="vertical-align:top;">:</td><td><div>HEAD</div></td></tr><tr><td style="font-weight:bold;vertical-align:top;">REQUEST_URI</td><td style="vertical-align:top;">:</td><td><div>/</div></td></tr><tr><td style="font-weight:bold;vertical-align:top;">SCRIPT_FILENAME</td><td style="vertical-align:top;">:</td><td><div>C:\\Users\\unificace\\unificace\\web2py\\handler.web2py</div></td></tr><tr><td style="font-weight:bold;vertical-align:top;">SCRIPT_NAME</td><td style="vertical-align:top;">:</td><td><div></div></td></tr><tr><td style="font-weight:bold;vertical-align:top;">SERVER_NAME</td><td style="vertical-align:top;">:</td><td><div>10.129.65.41</div></td></tr><tr><td style="font-weight:bold;vertical-align:top;">SERVER_PORT</td><td style="vertical-align:top;">:</td><td><div>443</div></td></tr><tr><td style="font-weight:bold;vertical-align:top;">SERVER_PORT_SECURE</td><td style="vertical-align:top;">:</td><td><div>1</div></td></tr><tr><td style="font-weight:bold;vertical-align:top;">SERVER_PROTOCOL</td><td style="vertical-align:top;">:</td><td><div>HTTP/1.1</div></td></tr><tr><td style="font-weight:bold;vertical-align:top;">SERVER_SOFTWARE</td><td style="vertical-align:top;">:</td><td><div>Microsoft-IIS/8.5</div></td></tr><tr><td style="font-weight:bold;vertical-align:top;">UNENCODED_URL</td><td style="vertical-align:top;">:</td><td><div>/</div></td></tr><tr><td style="font-weight:bold;vertical-align:top;">URL</td><td style="vertical-align:top;">:</td><td><div>/handler.web2py</div></td></tr><tr><td style="font-weight:bold;vertical-align:top;">app_folders</td><td style="vertical-align:top;">:</td><td><div>set([&#x27;C:\\\\Users\\\\unificace\\\\unificace\\\\web2py\\\\applications\\\\init\\\\&#x27;])</div></td></tr><tr><td style="font-weight:bold;vertical-align:top;">app_pool_config</td><td style="vertical-align:top;">:</td><td><div>C:\\inetpub\\temp\\apppools\\unificace\\unificace.config</div></td></tr><tr><td style="font-weight:bold;vertical-align:top;">app_pool_id</td><td style="vertical-align:top;">:</td><td><div>unificace</div></td></tr><tr><td style="font-weight:bold;vertical-align:top;">appl_md_path</td><td style="vertical-align:top;">:</td><td><div>/LM/W3SVC/2/ROOT</div></td></tr><tr><td style="font-weight:bold;vertical-align:top;">appl_physical_path</td><td style="vertical-align:top;">:</td><td><div>C:\\Users\\unificace\\unificace\\web2py\\</div></td></tr><tr><td style="font-weight:bold;vertical-align:top;">applications_parent</td><td style="vertical-align:top;">:</td><td><div>C:\\Users\\unificace\\unificace\\web2py</div></td></tr><tr><td style="font-weight:bold;vertical-align:top;">auth_password</td><td style="vertical-align:top;">:</td><td><div></div></td></tr><tr><td style="font-weight:bold;vertical-align:top;">auth_type</td><td style="vertical-align:top;">:</td><td><div></div></td></tr><tr><td style="font-weight:bold;vertical-align:top;">auth_user</td><td style="vertical-align:top;">:</td><td><div></div></td></tr><tr><td style="font-weight:bold;vertical-align:top;">cert_cookie</td><td style="vertical-align:top;">:</td><td><div></div></td></tr><tr><td style="font-weight:bold;vertical-align:top;">cert_flags</td><td style="vertical-align:top;">:</td><td><div></div></td></tr><tr><td style="font-weight:bold;vertical-align:top;">cert_issuer</td><td style="vertical-align:top;">:</td><td><div></div></td></tr><tr><td style="font-weight:bold;vertical-align:top;">cert_serialnumber</td><td style="vertical-align:top;">:</td><td><div></div></td></tr><tr><td style="font-weight:bold;vertical-align:top;">cert_subject</td><td style="vertical-align:top;">:</td><td><div></div></td></tr><tr><td style="font-weight:bold;vertical-align:top;">content_length</td><td style="vertical-align:top;">:</td><td><div>0</div></td></tr><tr><td style="font-weight:bold;vertical-align:top;">content_type</td><td style="vertical-align:top;">:</td><td><div></div></td></tr><tr><td style="font-weight:bold;vertical-align:top;">db_sessions</td><td style="vertical-align:top;">:</td><td><div>set([])</div></td></tr><tr><td style="font-weight:bold;vertical-align:top;">debugging</td><td style="vertical-align:top;">:</td><td><div>False</div></td></tr><tr><td style="font-weight:bold;vertical-align:top;">document_root</td><td style="vertical-align:top;">:</td><td><div>C:\\Users\\unificace\\unificace\\web2py</div></td></tr><tr><td style="font-weight:bold;vertical-align:top;">gateway_interface</td><td style="vertical-align:top;">:</td><td><div>CGI/1.1</div></td></tr><tr><td style="font-weight:bold;vertical-align:top;">gluon_parent</td><td style="vertical-align:top;">:</td><td><div>C:\\Users\\unificace\\unificace\\web2py</div></td></tr><tr><td style="font-weight:bold;vertical-align:top;">http_connection</td><td style="vertical-align:top;">:</td><td><div>Close</div></td></tr><tr><td style="font-weight:bold;vertical-align:top;">http_content_length</td><td style="vertical-align:top;">:</td><td><div>0</div></td></tr><tr><td style="font-weight:bold;vertical-align:top;">http_host</td><td style="vertical-align:top;">:</td><td><div>10.129.65.41:443</div></td></tr><tr><td style="font-weight:bold;vertical-align:top;">http_x_original_url</td><td style="vertical-align:top;">:</td><td><div>/</div></td></tr><tr><td style="font-weight:bold;vertical-align:top;">https</td><td style="vertical-align:top;">:</td><td><div>on</div></td></tr><tr><td style="font-weight:bold;vertical-align:top;">https_keysize</td><td style="vertical-align:top;">:</td><td><div>256</div></td></tr><tr><td style="font-weight:bold;vertical-align:top;">https_secretkeysize</td><td style="vertical-align:top;">:</td><td><div>2048</div></td></tr><tr><td style="font-weight:bold;vertical-align:top;">https_server_issuer</td><td style="vertical-align:top;">:</td><td><div>C=US, O=&quot;Entrust, Inc.&quot;, OU=See www.entrust.net/legal-terms, OU=&quot;(c) 2012 Entrust, Inc. - for authorized use only&quot;, CN=Entrust Certification Authority - L1K</div></td></tr><tr><td style="font-weight:bold;vertical-align:top;">https_server_subject</td><td style="vertical-align:top;">:</td><td><div>C=CA, S=Quebec, L=Quebec, O=Minist\xe8re de la sant\xe9 et des services sociaux du Qu\xe9bec, CN=*.cemtl.rtss.qc.ca</div></td></tr><tr><td style="font-weight:bold;vertical-align:top;">iis_urlrewritemodule</td><td style="vertical-align:top;">:</td><td><div>7.1.1980.0</div></td></tr><tr><td style="font-weight:bold;vertical-align:top;">iis_wasurlrewritten</td><td style="vertical-align:top;">:</td><td><div>1</div></td></tr><tr><td style="font-weight:bold;vertical-align:top;">instance_id</td><td style="vertical-align:top;">:</td><td><div>2</div></td></tr><tr><td style="font-weight:bold;vertical-align:top;">instance_meta_path</td><td style="vertical-align:top;">:</td><td><div>/LM/W3SVC/2</div></td></tr><tr><td style="font-weight:bold;vertical-align:top;">instance_name</td><td style="vertical-align:top;">:</td><td><div>UNIFICACE</div></td></tr><tr><td style="font-weight:bold;vertical-align:top;">is_jython</td><td style="vertical-align:top;">:</td><td><div>False</div></td></tr><tr><td style="font-weight:bold;vertical-align:top;">is_py2</td><td style="vertical-align:top;">:</td><td><div>True</div></td></tr><tr><td style="font-weight:bold;vertical-align:top;">is_pypy</td><td style="vertical-align:top;">:</td><td><div>False</div></td></tr><tr><td style="font-weight:bold;vertical-align:top;">is_source</td><td style="vertical-align:top;">:</td><td><div>True</div></td></tr><tr><td style="font-weight:bold;vertical-align:top;">local_addr</td><td style="vertical-align:top;">:</td><td><div>10.129.65.41</div></td></tr><tr><td style="font-weight:bold;vertical-align:top;">local_hosts</td><td style="vertical-align:top;">:</td><td><div><table><tr><td><div>S03VWPR00031</div></td></tr><tr><td><div>::ffff:127.0.0.1</div></td></tr><tr><td><div>::1</div></td></tr><tr><td><div>10.129.65.41</div></td></tr><tr><td><div>S03VWPR00031.cemtl.rtss.qc.ca</div></td></tr><tr><td><div>127.0.0.1</div></td></tr></table></div></td></tr><tr><td style="font-weight:bold;vertical-align:top;">logon_user</td><td style="vertical-align:top;">:</td><td><div></div></td></tr><tr><td style="font-weight:bold;vertical-align:top;">path_info</td><td style="vertical-align:top;">:</td><td><div>/</div></td></tr><tr><td style="font-weight:bold;vertical-align:top;">path_translated</td><td style="vertical-align:top;">:</td><td><div>C:\\Users\\unificace\\unificace\\web2py\\handler.web2py\\</div></td></tr><tr><td style="font-weight:bold;vertical-align:top;">query_string</td><td style="vertical-align:top;">:</td><td><div></div></td></tr><tr><td style="font-weight:bold;vertical-align:top;">remote_addr</td><td style="vertical-align:top;">:</td><td><div>10.129.64.51</div></td></tr><tr><td style="font-weight:bold;vertical-align:top;">remote_host</td><td style="vertical-align:top;">:</td><td><div>10.129.64.51</div></td></tr><tr><td style="font-weight:bold;vertical-align:top;">remote_port</td><td style="vertical-align:top;">:</td><td><div>56954</div></td></tr><tr><td style="font-weight:bold;vertical-align:top;">remote_user</td><td style="vertical-align:top;">:</td><td><div></div></td></tr><tr><td style="font-weight:bold;vertical-align:top;">request_method</td><td style="vertical-align:top;">:</td><td><div>HEAD</div></td></tr><tr><td style="font-weight:bold;vertical-align:top;">request_uri</td><td style="vertical-align:top;">:</td><td><div>/</div></td></tr><tr><td style="font-weight:bold;vertical-align:top;">script_filename</td><td style="vertical-align:top;">:</td><td><div>C:\\Users\\unificace\\unificace\\web2py\\handler.web2py</div></td></tr><tr><td style="font-weight:bold;vertical-align:top;">script_name</td><td style="vertical-align:top;">:</td><td><div></div></td></tr><tr><td style="font-weight:bold;vertical-align:top;">server_name</td><td style="vertical-align:top;">:</td><td><div>10.129.65.41</div></td></tr><tr><td style="font-weight:bold;vertical-align:top;">server_port</td><td style="vertical-align:top;">:</td><td><div>443</div></td></tr><tr><td style="font-weight:bold;vertical-align:top;">server_port_secure</td><td style="vertical-align:top;">:</td><td><div>1</div></td></tr><tr><td style="font-weight:bold;vertical-align:top;">server_protocol</td><td style="vertical-align:top;">:</td><td><div>HTTP/1.1</div></td></tr><tr><td style="font-weight:bold;vertical-align:top;">server_software</td><td style="vertical-align:top;">:</td><td><div>Microsoft-IIS/8.5</div></td></tr><tr><td style="font-weight:bold;vertical-align:top;">unencoded_url</td><td style="vertical-align:top;">:</td><td><div>/</div></td></tr><tr><td style="font-weight:bold;vertical-align:top;">url</td><td style="vertical-align:top;">:</td><td><div>/handler.web2py</div></td></tr><tr><td style="font-weight:bold;vertical-align:top;">web2py_path</td><td style="vertical-align:top;">:</td><td><div>C:\\Users\\unificace\\unificace\\web2py</div></td></tr><tr><td style="font-weight:bold;vertical-align:top;">web2py_version</td><td style="vertical-align:top;">:</td><td><div>2.16.1-stable+timestamp.2017.11.14.05.54.25</div></td></tr><tr><td style="font-weight:bold;vertical-align:top;">wfastcgi.http_x_original_url</td><td style="vertical-align:top;">:</td><td><div>/</div></td></tr><tr><td style="font-weight:bold;vertical-align:top;">wfastcgi_http_x_original_url</td><td style="vertical-align:top;">:</td><td><div>/</div></td></tr><tr><td style="font-weight:bold;vertical-align:top;">wsgi.errors</td><td style="vertical-align:top;">:</td><td><div>&lt;cStringIO.StringO object at 0x0000000004114B58&gt;</div></td></tr><tr><td style="font-weight:bold;vertical-align:top;">wsgi.input</td><td style="vertical-align:top;">:</td><td><div>&lt;cStringIO.StringI object at 0x00000000013259C0&gt;</div></td></tr><tr><td style="font-weight:bold;vertical-align:top;">wsgi.multiprocess</td><td style="vertical-align:top;">:</td><td><div>True</div></td></tr><tr><td style="font-weight:bold;vertical-align:top;">wsgi.multithread</td><td style="vertical-align:top;">:</td><td><div>False</div></td></tr><tr><td style="font-weight:bold;vertical-align:top;">wsgi.path_info</td><td style="vertical-align:top;">:</td><td><div>/</div></td></tr><tr><td style="font-weight:bold;vertical-align:top;">wsgi.query_string</td><td style="vertical-align:top;">:</td><td><div></div></td></tr><tr><td style="font-weight:bold;vertical-align:top;">wsgi.run_once</td><td style="vertical-align:top;">:</td><td><div>False</div></td></tr><tr><td style="font-weight:bold;vertical-align:top;">wsgi.script_name</td><td style="vertical-align:top;">:</td><td><div></div></td></tr><tr><td style="font-weight:bold;vertical-align:top;">wsgi.url_scheme</td><td style="vertical-align:top;">:</td><td><div>https</div></td></tr><tr><td style="font-weight:bold;vertical-align:top;">wsgi.version</td><td style="vertical-align:top;">:</td><td><div><table><tr><td><div>1</div></td></tr><tr><td><div>0</div></td></tr></table></div></td></tr><tr><td style="font-weight:bold;vertical-align:top;">wsgi_errors</td><td style="vertical-align:top;">:</td><td><div>&lt;cStringIO.StringO object at 0x0000000004114B58&gt;</div></td></tr><tr><td style="font-weight:bold;vertical-align:top;">wsgi_input</td><td style="vertical-align:top;">:</td><td><div>&lt;cStringIO.StringI object at 0x00000000013259C0&gt;</div></td></tr><tr><td style="font-weight:bold;vertical-align:top;">wsgi_multiprocess</td><td style="vertical-align:top;">:</td><td><div>True</div></td></tr><tr><td style="font-weight:bold;vertical-align:top;">wsgi_multithread</td><td style="vertical-align:top;">:</td><td><div>False</div></td></tr><tr><td style="font-weight:bold;vertical-align:top;">wsgi_path_info</td><td style="vertical-align:top;">:</td><td><div>/</div></td></tr><tr><td style="font-weight:bold;vertical-align:top;">wsgi_query_string</td><td style="vertical-align:top;">:</td><td><div></div></td></tr><tr><td style="font-weight:bold;vertical-align:top;">wsgi_run_once</td><td style="vertical-align:top;">:</td><td><div>False</div></td></tr><tr><td style="font-weight:bold;vertical-align:top;">wsgi_script_name</td><td style="vertical-align:top;">:</td><td><div></div></td></tr><tr><td style="font-weight:bold;vertical-align:top;">wsgi_url_scheme</td><td style="vertical-align:top;">:</td><td><div>https</div></td></tr><tr><td style="font-weight:bold;vertical-align:top;">wsgi_version</td><td style="vertical-align:top;">:</td><td><div><table><tr><td><div>1</div></td></tr><tr><td><div>0</div></td></tr></table></div></td></tr></table></div></td></tr><tr><td style="font-weight:bold;vertical-align:top;">extension</td><td style="vertical-align:top;">:</td><td><div>html</div></td></tr><tr><td style="font-weight:bold;vertical-align:top;">folder</td><td style="vertical-align:top;">:</td><td><div>C:\\Users\\unificace\\unificace\\web2py\\applications\\init\\</div></td></tr><tr><td style="font-weight:bold;vertical-align:top;">function</td><td style="vertical-align:top;">:</td><td><div>index</div></td></tr><tr><td style="font-weight:bold;vertical-align:top;">global_settings</td><td style="vertical-align:top;">:</td><td><div><table><tr><td style="font-weight:bold;vertical-align:top;">app_folders</td><td style="vertical-align:top;">:</td><td><div>set([&#x27;C:\\\\Users\\\\unificace\\\\unificace\\\\web2py\\\\applications\\\\init\\\\&#x27;])</div></td></tr><tr><td style="font-weight:bold;vertical-align:top;">applications_parent</td><td style="vertical-align:top;">:</td><td><div>C:\\Users\\unificace\\unificace\\web2py</div></td></tr><tr><td style="font-weight:bold;vertical-align:top;">db_sessions</td><td style="vertical-align:top;">:</td><td><div>set([])</div></td></tr><tr><td style="font-weight:bold;vertical-align:top;">debugging</td><td style="vertical-align:top;">:</td><td><div>False</div></td></tr><tr><td style="font-weight:bold;vertical-align:top;">gluon_parent</td><td style="vertical-align:top;">:</td><td><div>C:\\Users\\unificace\\unificace\\web2py</div></td></tr><tr><td style="font-weight:bold;vertical-align:top;">is_jython</td><td style="vertical-align:top;">:</td><td><div>False</div></td></tr><tr><td style="font-weight:bold;vertical-align:top;">is_py2</td><td style="vertical-align:top;">:</td><td><div>True</div></td></tr><tr><td style="font-weight:bold;vertical-align:top;">is_pypy</td><td style="vertical-align:top;">:</td><td><div>False</div></td></tr><tr><td style="font-weight:bold;vertical-align:top;">is_source</td><td style="vertical-align:top;">:</td><td><div>True</div></td></tr><tr><td style="font-weight:bold;vertical-align:top;">local_hosts</td><td style="vertical-align:top;">:</td><td><div><table><tr><td><div>S03VWPR00031</div></td></tr><tr><td><div>::ffff:127.0.0.1</div></td></tr><tr><td><div>::1</div></td></tr><tr><td><div>10.129.65.41</div></td></tr><tr><td><div>S03VWPR00031.cemtl.rtss.qc.ca</div></td></tr><tr><td><div>127.0.0.1</div></td></tr></table></div></td></tr><tr><td style="font-weight:bold;vertical-align:top;">web2py_version</td><td style="vertical-align:top;">:</td><td><div>2.16.1-stable+timestamp.2017.11.14.05.54.25</div></td></tr></table></div></td></tr><tr><td style="font-weight:bold;vertical-align:top;">is_https</td><td style="vertical-align:top;">:</td><td><div>True</div></td></tr><tr><td style="font-weight:bold;vertical-align:top;">is_local</td><td style="vertical-align:top;">:</td><td><div>False</div></td></tr><tr><td style="font-weight:bold;vertical-align:top;">is_restful</td><td style="vertical-align:top;">:</td><td><div>False</div></td></tr><tr><td style="font-weight:bold;vertical-align:top;">is_scheduler</td><td style="vertical-align:top;">:</td><td><div>False</div></td></tr><tr><td style="font-weight:bold;vertical-align:top;">is_shell</td><td style="vertical-align:top;">:</td><td><div>False</div></td></tr><tr><td style="font-weight:bold;vertical-align:top;">now</td><td style="vertical-align:top;">:</td><td><div>datetime.datetime(2022, 9, 2, 5, 42, 13, 600000)</div></td></tr><tr><td style="font-weight:bold;vertical-align:top;">raw_args</td><td style="vertical-align:top;">:</td><td><div></div></td></tr><tr><td style="font-weight:bold;vertical-align:top;">raw_extension</td><td style="vertical-align:top;">:</td><td><div>None</div></td></tr><tr><td style="font-weight:bold;vertical-align:top;">url</td><td style="vertical-align:top;">:</td><td><div>/</div></td></tr><tr><td style="font-weight:bold;vertical-align:top;">utcnow</td><td style="vertical-align:top;">:</td><td><div>datetime.datetime(2022, 9, 2, 9, 42, 13, 600000)</div></td></tr><tr><td style="font-weight:bold;vertical-align:top;">wsgi</td><td style="vertical-align:top;">:</td><td><div>&lt;gluon.main.LazyWSGI object at 0x00000000040EAD68&gt;</div></td></tr></table></div>'
tRp59
sS'frames'
p60
(lp61
(dp62
S'file'
p63
S'C:\\Users\\unificace\\unificace\\web2py\\gluon\\restricted.py'
p64
sS'dump'
p65
(dp66
S'environment'
p67
S"{'A': <class 'gluon.html.A'>, 'ANY_OF': <class 'gluon.validators.ANY_OF'>, 'ASSIGNJS': <function ASSIGNJS>, 'AppConfig': <function AppConfig>, 'Auth': <class 'gluon.tools.Auth'>, 'B': <class 'gluon.html.B'>, 'BEAUTIFY': <class 'gluon.html.BEAUTIFY'>, 'BODY': <class 'gluon.html.BODY'>, 'BR': <class 'gluon.html.BR'>, 'BUTTON': <class 'gluon.html.BUTTON'>, ...}"
p68
sS'ccode'
p69
S'<code object <module> at 000000000276C930, file ...\\web2py\\applications\\init\\models\\db.py", line 14>'
p70
ssS'lnum'
p71
I219
sS'lines'
p72
(dp73
I214
S'    if environment is None:'
p74
sI215
S'        environment = {}'
p75
sI216
S"    environment['__file__'] = layer"
p76
sI217
S"    environment['__name__'] = '__restricted__'"
p77
sI218
S'    try:'
p78
sI219
S'        exec(ccode, environment)'
p79
sI220
S'    except HTTP:'
p80
sI221
S'        raise'
p81
sI222
S'    except RestrictedError:'
p82
sI223
S'        # do not encapsulate (obfuscate) the original RestrictedError'
p83
ssS'call'
p84
S'(ccode=<code object <module> at 000000000276C930, file ...\\web2py\\applications\\init\\models\\db.py", line 14>, environment={\'A\': <class \'gluon.html.A\'>, \'ANY_OF\': <class \'gluon.validators.ANY_OF\'>, \'ASSIGNJS\': <function ASSIGNJS>, \'AppConfig\': <function AppConfig>, \'Auth\': <class \'gluon.tools.Auth\'>, \'B\': <class \'gluon.html.B\'>, \'BEAUTIFY\': <class \'gluon.html.BEAUTIFY\'>, \'BODY\': <class \'gluon.html.BODY\'>, \'BR\': <class \'gluon.html.BR\'>, \'BUTTON\': <class \'gluon.html.BUTTON\'>, ...}, layer=r\'C:\\Users\\unificace\\unificace\\web2py\\applications\\init\\models\\db.py\', scode=<code object <module> at 000000000276C930, file ...\\web2py\\applications\\init\\models\\db.py", line 14>)'
p85
sS'func'
p86
S'restricted'
p87
sa(dp88
g63
S'C:\\Users\\unificace\\unificace\\web2py\\applications\\init\\models\\db.py'
p89
sg65
(dp90
S'signature'
p91
S'<Table signature (id, edit_by, edit_time)>'
p92
ssg71
I1191
sg72
(dp93
I1186
S"                Field('TypeDeGarantie'),"
p94
sI1187
S"                Field('DureeDAmortissement'),"
p95
sI1188
S"                Field('CoutDAchat'),"
p96
sI1189
S"                Field('NoDeFacture'),"
p97
sI1190
S"                Field('ExpirationDeLaGarantie'),"
p98
sI1191
S'                signature,'
p99
sI1192
S'                )'
p100
sI1193
S''
sI1194
S''
sI1195
S"#db.define_table('inv_label_table',"
p101
ssg84
S'()'
p102
sg86
S'<module>'
p103
sa(dp104
g63
S'C:\\Users\\unificace\\unificace\\web2py\\gluon\\packages\\dal\\pydal\\base.py'
p105
sg65
(dp106
S'fields'
p107
S'(<pydal.objects.Field object>, <pydal.objects.Field object>, <pydal.objects.Field object>, <pydal.objects.Field object>, <pydal.objects.Field object>, <pydal.objects.Field object>, <pydal.objects.Field object>, <pydal.objects.Field object>, <pydal.objects.Field object>, <pydal.objects.Field object>, <pydal.objects.Field object>, <pydal.objects.Field object>, <pydal.objects.Field object>, <pydal.objects.Field object>, <pydal.objects.Field object>, <pydal.objects.Field object>, <pydal.objects.Field object>, <pydal.objects.Field object>, <pydal.objects.Field object>, <pydal.objects.Field object>, ...)'
p108
sS'self'
p109
S'<DAL uri="mssql4:******@S03VWPR00004.cemtl.rtss.qc.ca/unificace">'
p110
sS'args'
p111
g19
sS'tablename'
p112
S"'inv_cis'"
p113
sS'table'
p114
S'undefined'
p115
sS'self.lazy_define_table'
p116
S'<bound method DAL.lazy_define_table of <DAL uri=...******@S03VWPR00004.cemtl.rtss.qc.ca/unificace">>'
p117
ssg71
I586
sg72
(dp118
I581
S'                                  (tablename, invalid_args))'
p119
sI582
S'        if self._lazy_tables and tablename not in self._LAZY_TABLES:'
p120
sI583
S'            self._LAZY_TABLES[tablename] = (tablename, fields, args)'
p121
sI584
S'            table = None'
p122
sI585
S'        else:'
p123
sI586
S'            table = self.lazy_define_table(tablename, *fields, **args)'
p124
sI587
S'        if tablename not in self.tables:'
p125
sI588
S'            self.tables.append(tablename)'
p126
sI589
S'        return table'
p127
sI590
S''
ssg84
S'(self=<DAL uri="mssql4:******@S03VWPR00004.cemtl.rtss.qc.ca/unificace">, tablename=\'inv_cis\', *fields=(<pydal.objects.Field object>, <pydal.objects.Field object>, <pydal.objects.Field object>, <pydal.objects.Field object>, <pydal.objects.Field object>, <pydal.objects.Field object>, <pydal.objects.Field object>, <pydal.objects.Field object>, <pydal.objects.Field object>, <pydal.objects.Field object>, <pydal.objects.Field object>, <pydal.objects.Field object>, <pydal.objects.Field object>, <pydal.objects.Field object>, <pydal.objects.Field object>, <pydal.objects.Field object>, <pydal.objects.Field object>, <pydal.objects.Field object>, <pydal.objects.Field object>, <pydal.objects.Field object>, ...), **args={})'
p128
sg86
S'define_table'
p129
sa(dp130
g63
S'C:\\Users\\unificace\\unificace\\web2py\\gluon\\packages\\dal\\pydal\\base.py'
p131
sg65
(dp132
S'polymodel'
p133
S'None'
p134
ssg71
I620
sg72
(dp135
I615
S'            try:'
p136
sI616
S'                GLOBAL_LOCKER.acquire()'
p137
sI617
S'                self._adapter.create_table('
p138
sI618
S'                    table, migrate=migrate,'
p139
sI619
S'                    fake_migrate=fake_migrate,'
p140
sI620
S'                    polymodel=polymodel)'
p141
sI621
S'            finally:'
p142
sI622
S'                GLOBAL_LOCKER.release()'
p143
sI623
S'        else:'
p144
sI624
S'            table._dbt = None'
p145
ssg84
S'(self=<DAL uri="mssql4:******@S03VWPR00004.cemtl.rtss.qc.ca/unificace">, tablename=\'inv_cis\', *fields=(<pydal.objects.Field object>, <pydal.objects.Field object>, <pydal.objects.Field object>, <pydal.objects.Field object>, <pydal.objects.Field object>, <pydal.objects.Field object>, <pydal.objects.Field object>, <pydal.objects.Field object>, <pydal.objects.Field object>, <pydal.objects.Field object>, <pydal.objects.Field object>, <pydal.objects.Field object>, <pydal.objects.Field object>, <pydal.objects.Field object>, <pydal.objects.Field object>, <pydal.objects.Field object>, <pydal.objects.Field object>, <pydal.objects.Field object>, <pydal.objects.Field object>, <pydal.objects.Field object>, ...), **args={})'
p146
sg86
S'lazy_define_table'
p147
sa(dp148
g63
S'C:\\Users\\unificace\\unificace\\web2py\\gluon\\packages\\dal\\pydal\\adapters\\base.py'
p149
sg65
(dp150
S'self'
p151
S'<pydal.adapters.mssql.MSSQL4 object>'
p152
sS'args'
p153
S'(<Table inv_cis (id, Nom, impression, impression_...ure, ExpirationDeLaGarantie, edit_by, edit_time)>,)'
p154
sS'self.migrator'
p155
S'<pydal.migrator.Migrator object>'
p156
sS'self.migrator.create_table'
p157
S'<bound method Migrator.create_table of <pydal.migrator.Migrator object>>'
p158
sS'kwargs'
p159
S"{'fake_migrate': False, 'migrate': True, 'polymodel': None}"
p160
ssg71
I797
sg72
(dp161
I800
S'        super(SQLAdapter, self)._drop_table_cleanup(table)'
p162
sI801
S'        if table._dbt:'
p163
sI792
S''
sI793
S'    def bulk_insert(self, table, items):'
p164
sI794
S'        return [self.insert(table, item) for item in items]'
p165
sI795
S''
sI796
S'    def create_table(self, *args, **kwargs):'
p166
sI797
S'        return self.migrator.create_table(*args, **kwargs)'
p167
sI798
S''
sI799
S'    def _drop_table_cleanup(self, table):'
p168
ssg84
S"(self=<pydal.adapters.mssql.MSSQL4 object>, *args=(<Table inv_cis (id, Nom, impression, impression_...ure, ExpirationDeLaGarantie, edit_by, edit_time)>,), **kwargs={'fake_migrate': False, 'migrate': True, 'polymodel': None})"
p169
sg86
S'create_table'
p170
sa(dp171
g63
S'C:\\Users\\unificace\\unificace\\web2py\\gluon\\packages\\dal\\pydal\\migrator.py'
p172
sg65
(dp173
S'fake_migrate'
p174
S'False'
p175
ssg71
I314
sg72
(dp176
I309
S'            if sql_fields != sql_fields_old:'
p177
sI310
S'                self.migrate_table('
p178
sI311
S'                    table,'
p179
sI312
S'                    sql_fields, sql_fields_old,'
p180
sI313
S'                    sql_fields_aux, None,'
p181
sI314
S'                    fake_migrate=fake_migrate'
p182
sI315
S'                    )'
p183
sI316
S'        return query'
p184
sI317
S''
sI318
S'    def _fix(self, item):'
p185
ssg84
S'(self=<pydal.migrator.Migrator object>, table=<Table inv_cis (id, Nom, impression, impression_...ure, ExpirationDeLaGarantie, edit_by, edit_time)>, migrate=True, fake_migrate=False, polymodel=None)'
p186
sg86
g170
sa(dp187
g63
S'C:\\Users\\unificace\\unificace\\web2py\\gluon\\packages\\dal\\pydal\\migrator.py'
p188
sg65
(dp189
S'global iteritems'
p190
S'<function <lambda>>'
p191
sS'self'
p192
S'<pydal.migrator.Migrator object>'
p193
sS'self._fix'
p194
S'<bound method Migrator._fix of <pydal.migrator.Migrator object>>'
p195
sS'sql_fields'
p196
S'{\'AdresseIP\': {\'length\': 512, \'notnull\': False, \'raw_rname\': \'AdresseIP\', \'rname\': \'"AdresseIP"\', \'sortable\': 6, \'sql\': \'VARCHAR(512) NULL\', \'type\': \'string\', \'unique\': False}, \'AdresseMAC\': {\'length\': 512, \'notnull\': False, \'raw_rname\': \'AdresseMAC\', \'rname\': \'"AdresseMAC"\', \'sortable\': 16, \'sql\': \'VARCHAR(512) NULL\', \'type\': \'string\', \'unique\': False}, \'CentreDeCouts\': {\'length\': 512, \'notnull\': False, \'raw_rname\': \'CentreDeCouts\', \'rname\': \'"CentreDeCouts"\', \'sortable\': 12, \'sql\': \'VARCHAR(512) NULL\', \'type\': \'string\', \'unique\': False}, \'Compteur\': {\'length\': 512, \'notnull\': False, \'raw_rname\': \'Compteur\', \'rname\': \'"Compteur"\', \'sortable\': 8, \'sql\': \'VARCHAR(512) NULL\', \'type\': \'string\', \'unique\': False}, \'CoutDAchat\': {\'length\': 512, \'notnull\': False, \'raw_rname\': \'CoutDAchat\', \'rname\': \'"CoutDAchat"\', \'sortable\': 29, \'sql\': \'VARCHAR(512) NULL\', \'type\': \'string\', \'unique\': False}, \'DateAchat\': {\'length\': 512, \'notnull\': False, \'raw_rname\': \'DateAchat\', \'rname\': \'"DateAchat"\', \'sortable\': 14, \'sql\': \'DATE NULL\', \'type\': \'date\', \'unique\': False}, \'Dimension\': {\'length\': 512, \'notnull\': False, \'raw_rname\': \'Dimension\', \'rname\': \'"Dimension"\', \'sortable\': 25, \'sql\': \'VARCHAR(512) NULL\', \'type\': \'string\', \'unique\': False}, \'DureeDAmortissement\': {\'length\': 512, \'notnull\': False, \'raw_rname\': \'DureeDAmortissement\', \'rname\': \'"DureeDAmortissement"\', \'sortable\': 28, \'sql\': \'VARCHAR(512) NULL\', \'type\': \'string\', \'unique\': False}, \'Etat\': {\'length\': 512, \'notnull\': False, \'raw_rname\': \'Etat\', \'rname\': \'"Etat"\', \'sortable\': 24, \'sql\': \'VARCHAR(512) NULL\', \'type\': \'string\', \'unique\': False}, \'ExpirationDeLaGarantie\': {\'length\': 512, \'notnull\': False, \'raw_rname\': \'ExpirationDeLaGarantie\', \'rname\': \'"ExpirationDeLaGarantie"\', \'sortable\': 31, \'sql\': \'VARCHAR(512) NULL\', \'type\': \'string\', \'unique\': False}, ...}'
p197
sS'builtindict'
p198
S"<type 'dict'>"
p199
sS'builtinmap'
p200
S'<built-in function map>'
p201
ssg71
I340
sg72
(dp202
I335
S"            drop_expr = 'ALTER TABLE %s DROP COLUMN %s;'"
p203
sI336
S'        field_types = dict((x.lower(), table[x].type)'
p204
sI337
S'            for x in sql_fields.keys() if x in table)'
p205
sI338
S'        # make sure all field names are lower case to avoid'
p206
sI339
S'        # migrations because of case change'
p207
sI340
S'        sql_fields = dict(map(self._fix, iteritems(sql_fields)))'
p208
sI341
S'        sql_fields_old = dict(map(self._fix, iteritems(sql_fields_old)))'
p209
sI342
S'        sql_fields_aux = dict(map(self._fix, iteritems(sql_fields_aux)))'
p210
sI343
S'        if db._debug:'
p211
sI344
S"            db.logger.debug('migrating %s to %s' % ("
p212
ssg84
S'(self=<pydal.migrator.Migrator object>, table=<Table inv_cis (id, Nom, impression, impression_...ure, ExpirationDeLaGarantie, edit_by, edit_time)>, sql_fields={\'AdresseIP\': {\'length\': 512, \'notnull\': False, \'raw_rname\': \'AdresseIP\', \'rname\': \'"AdresseIP"\', \'sortable\': 6, \'sql\': \'VARCHAR(512) NULL\', \'type\': \'string\', \'unique\': False}, \'AdresseMAC\': {\'length\': 512, \'notnull\': False, \'raw_rname\': \'AdresseMAC\', \'rname\': \'"AdresseMAC"\', \'sortable\': 16, \'sql\': \'VARCHAR(512) NULL\', \'type\': \'string\', \'unique\': False}, \'CentreDeCouts\': {\'length\': 512, \'notnull\': False, \'raw_rname\': \'CentreDeCouts\', \'rname\': \'"CentreDeCouts"\', \'sortable\': 12, \'sql\': \'VARCHAR(512) NULL\', \'type\': \'string\', \'unique\': False}, \'Compteur\': {\'length\': 512, \'notnull\': False, \'raw_rname\': \'Compteur\', \'rname\': \'"Compteur"\', \'sortable\': 8, \'sql\': \'VARCHAR(512) NULL\', \'type\': \'string\', \'unique\': False}, \'CoutDAchat\': {\'length\': 512, \'notnull\': False, \'raw_rname\': \'CoutDAchat\', \'rname\': \'"CoutDAchat"\', \'sortable\': 29, \'sql\': \'VARCHAR(512) NULL\', \'type\': \'string\', \'unique\': False}, \'DateAchat\': {\'length\': 512, \'notnull\': False, \'raw_rname\': \'DateAchat\', \'rname\': \'"DateAchat"\', \'sortable\': 14, \'sql\': \'DATE NULL\', \'type\': \'date\', \'unique\': False}, \'Dimension\': {\'length\': 512, \'notnull\': False, \'raw_rname\': \'Dimension\', \'rname\': \'"Dimension"\', \'sortable\': 25, \'sql\': \'VARCHAR(512) NULL\', \'type\': \'string\', \'unique\': False}, \'DureeDAmortissement\': {\'length\': 512, \'notnull\': False, \'raw_rname\': \'DureeDAmortissement\', \'rname\': \'"DureeDAmortissement"\', \'sortable\': 28, \'sql\': \'VARCHAR(512) NULL\', \'type\': \'string\', \'unique\': False}, \'Etat\': {\'length\': 512, \'notnull\': False, \'raw_rname\': \'Etat\', \'rname\': \'"Etat"\', \'sortable\': 24, \'sql\': \'VARCHAR(512) NULL\', \'type\': \'string\', \'unique\': False}, \'ExpirationDeLaGarantie\': {\'length\': 512, \'notnull\': False, \'raw_rname\': \'ExpirationDeLaGarantie\', \'rname\': \'"ExpirationDeLaGarantie"\', \'sortable\': 31, \'sql\': \'VARCHAR(512) NULL\', \'type\': \'string\', \'unique\': False}, ...}, sql_fields_old={\'adresseip\': {\'length\': 512, \'notnull\': False, \'raw_rname\': \'AdresseIP\', \'rname\': \'"AdresseIP"\', \'sortable\': 6, \'sql\': \'VARCHAR(512) NULL\', \'type\': \'string\', \'unique\': False}, \'adressemac\': {\'length\': 512, \'notnull\': False, \'raw_rname\': \'AdresseMAC\', \'rname\': \'"AdresseMAC"\', \'sortable\': 16, \'sql\': \'VARCHAR(512) NULL\', \'type\': \'string\', \'unique\': False}, \'centredecouts\': {\'length\': 512, \'notnull\': False, \'raw_rname\': \'CentreDeCouts\', \'rname\': \'"CentreDeCouts"\', \'sortable\': 12, \'sql\': \'VARCHAR(512) NULL\', \'type\': \'string\', \'unique\': False}, \'compteur\': {\'length\': 512, \'notnull\': False, \'raw_rname\': \'Compteur\', \'rname\': \'"Compteur"\', \'sortable\': 8, \'sql\': \'VARCHAR(512) NULL\', \'type\': \'string\', \'unique\': False}, \'coutdachat\': {\'length\': 512, \'notnull\': False, \'raw_rname\': \'CoutDAchat\', \'rname\': \'"CoutDAchat"\', \'sortable\': 29, \'sql\': \'VARCHAR(512) NULL\', \'type\': \'string\', \'unique\': False}, \'dateachat\': {\'length\': 512, \'notnull\': False, \'raw_rname\': \'DateAchat\', \'rname\': \'"DateAchat"\', \'sortable\': 14, \'sql\': \'DATE NULL\', \'type\': \'date\', \'unique\': False}, \'dimension\': {\'length\': 512, \'notnull\': False, \'raw_rname\': \'Dimension\', \'rname\': \'"Dimension"\', \'sortable\': 25, \'sql\': \'VARCHAR(512) NULL\', \'type\': \'string\', \'unique\': False}, \'dureedamortissement\': {\'length\': 512, \'notnull\': False, \'raw_rname\': \'DureeDAmortissement\', \'rname\': \'"DureeDAmortissement"\', \'sortable\': 28, \'sql\': \'VARCHAR(512) NULL\', \'type\': \'string\', \'unique\': False}, \'edit_by\': {\'length\': 512, \'notnull\': False, \'raw_rname\': \'edit_by\', \'rname\': \'"edit_by"\', \'sortable\': 32, \'sql\': \'INT NULL, CONSTRAINT "inv_cis_edit_by__constrain...) REFERENCES "auth_user" ("id") ON DELETE CASCADE\', \'type\': \'reference auth_user\', \'unique\': False}, \'edit_time\': {\'length\': 512, \'notnull\': False, \'raw_rname\': \'edit_time\', \'rname\': \'"edit_time"\', \'sortable\': 33, \'sql\': \'DATETIME NULL\', \'type\': \'datetime\', \'unique\': False}, ...}, sql_fields_aux={\'AdresseIP\': {\'sql\': \'VARCHAR(512) NULL\'}, \'AdresseMAC\': {\'sql\': \'VARCHAR(512) NULL\'}, \'CentreDeCouts\': {\'sql\': \'VARCHAR(512) NULL\'}, \'Compteur\': {\'sql\': \'VARCHAR(512) NULL\'}, \'CoutDAchat\': {\'sql\': \'VARCHAR(512) NULL\'}, \'DateAchat\': {\'sql\': \'DATE NULL\'}, \'Dimension\': {\'sql\': \'VARCHAR(512) NULL\'}, \'DureeDAmortissement\': {\'sql\': \'VARCHAR(512) NULL\'}, \'Etat\': {\'sql\': \'VARCHAR(512) NULL\'}, \'ExpirationDeLaGarantie\': {\'sql\': \'VARCHAR(512) NULL\'}, ...}, logfile=None, fake_migrate=False)'
p213
sg86
S'migrate_table'
p214
sasS'pyver'
p215
S'Python 2.7.13: c:\\python27\\python.exe (prefix: c:\\python27)'
p216
sS'session'
p217
g58
(S's\x1a\x00\x00\x00<div><table></table></div>'
tRp218
sS'etype'
p219
S"<type 'exceptions.MemoryError'>"
p220
sS'date'
p221
S'Fri Sep 02 05:42:13 2022'
p222
sS'response'
p223
g58
(S's!\x16\x00\x00<div><table><tr><td style="font-weight:bold;vertical-align:top;">body</td><td style="vertical-align:top;">:</td><td><div>&lt;cStringIO.StringO object at 0x0000000003D70B58&gt;</div></td></tr><tr><td style="font-weight:bold;vertical-align:top;">cookies</td><td style="vertical-align:top;">:</td><td><div><table><tr><td style="font-weight:bold;vertical-align:top;">session_id_init</td><td style="vertical-align:top;">:</td><td><div>10.129.64.51-c06dda1d-d2fb-40e7-a199-b2f44640042d<table><tr><td style="font-weight:bold;vertical-align:top;">comment</td><td style="vertical-align:top;">:</td><td><div></div></td></tr><tr><td style="font-weight:bold;vertical-align:top;">domain</td><td style="vertical-align:top;">:</td><td><div></div></td></tr><tr><td style="font-weight:bold;vertical-align:top;">expires</td><td style="vertical-align:top;">:</td><td><div></div></td></tr><tr><td style="font-weight:bold;vertical-align:top;">httponly</td><td style="vertical-align:top;">:</td><td><div></div></td></tr><tr><td style="font-weight:bold;vertical-align:top;">max-age</td><td style="vertical-align:top;">:</td><td><div></div></td></tr><tr><td style="font-weight:bold;vertical-align:top;">path</td><td style="vertical-align:top;">:</td><td><div>/</div></td></tr><tr><td style="font-weight:bold;vertical-align:top;">secure</td><td style="vertical-align:top;">:</td><td><div></div></td></tr><tr><td style="font-weight:bold;vertical-align:top;">version</td><td style="vertical-align:top;">:</td><td><div></div></td></tr></table></div></td></tr></table></div></td></tr><tr><td style="font-weight:bold;vertical-align:top;">delimiters</td><td style="vertical-align:top;">:</td><td><div><table><tr><td><div>{{</div></td></tr><tr><td><div>}}</div></td></tr></table></div></td></tr><tr><td style="font-weight:bold;vertical-align:top;">files</td><td style="vertical-align:top;">:</td><td><div><table></table></div></td></tr><tr><td style="font-weight:bold;vertical-align:top;">flash</td><td style="vertical-align:top;">:</td><td><div></div></td></tr><tr><td style="font-weight:bold;vertical-align:top;">form_label_separator</td><td style="vertical-align:top;">:</td><td><div></div></td></tr><tr><td style="font-weight:bold;vertical-align:top;">formstyle</td><td style="vertical-align:top;">:</td><td><div>bootstrap3_inline</div></td></tr><tr><td style="font-weight:bold;vertical-align:top;">generic_patterns</td><td style="vertical-align:top;">:</td><td><div><table></table></div></td></tr><tr><td style="font-weight:bold;vertical-align:top;">headers</td><td style="vertical-align:top;">:</td><td><div><table><tr><td style="font-weight:bold;vertical-align:top;">X-Powered-By</td><td style="vertical-align:top;">:</td><td><div>web2py</div></td></tr></table></div></td></tr><tr><td style="font-weight:bold;vertical-align:top;">menu</td><td style="vertical-align:top;">:</td><td><div><table></table></div></td></tr><tr><td style="font-weight:bold;vertical-align:top;">meta</td><td style="vertical-align:top;">:</td><td><div><table></table></div></td></tr><tr><td style="font-weight:bold;vertical-align:top;">models_to_run</td><td style="vertical-align:top;">:</td><td><div><table><tr><td><div>^\\w+\\.py$</div></td></tr><tr><td><div>^default/\\w+\\.py$</div></td></tr><tr><td><div>^default/index/\\w+\\.py$</div></td></tr></table></div></td></tr><tr><td style="font-weight:bold;vertical-align:top;">postprocessing</td><td style="vertical-align:top;">:</td><td><div><table></table></div></td></tr><tr><td style="font-weight:bold;vertical-align:top;">session_client</td><td style="vertical-align:top;">:</td><td><div>10.129.64.51</div></td></tr><tr><td style="font-weight:bold;vertical-align:top;">session_cookie_compression_level</td><td style="vertical-align:top;">:</td><td><div>None</div></td></tr><tr><td style="font-weight:bold;vertical-align:top;">session_cookie_expires</td><td style="vertical-align:top;">:</td><td><div>None</div></td></tr><tr><td style="font-weight:bold;vertical-align:top;">session_data_name</td><td style="vertical-align:top;">:</td><td><div>session_data_init</div></td></tr><tr><td style="font-weight:bold;vertical-align:top;">session_file</td><td style="vertical-align:top;">:</td><td><div>None</div></td></tr><tr><td style="font-weight:bold;vertical-align:top;">session_filename</td><td style="vertical-align:top;">:</td><td><div>C:\\Users\\unificace\\unificace\\web2py\\applications\\init\\sessions\\10.129.64.51-c06dda1d-d2fb-40e7-a199-b2f44640042d</div></td></tr><tr><td style="font-weight:bold;vertical-align:top;">session_hash</td><td style="vertical-align:top;">:</td><td><div>c0762cbf4baf7f9af97c051e7fcb8083</div></td></tr><tr><td style="font-weight:bold;vertical-align:top;">session_id</td><td style="vertical-align:top;">:</td><td><div>10.129.64.51-c06dda1d-d2fb-40e7-a199-b2f44640042d</div></td></tr><tr><td style="font-weight:bold;vertical-align:top;">session_id_name</td><td style="vertical-align:top;">:</td><td><div>session_id_init</div></td></tr><tr><td style="font-weight:bold;vertical-align:top;">session_masterapp</td><td style="vertical-align:top;">:</td><td><div>init</div></td></tr><tr><td style="font-weight:bold;vertical-align:top;">session_new</td><td style="vertical-align:top;">:</td><td><div>True</div></td></tr><tr><td style="font-weight:bold;vertical-align:top;">session_storage_type</td><td style="vertical-align:top;">:</td><td><div>file</div></td></tr><tr><td style="font-weight:bold;vertical-align:top;">status</td><td style="vertical-align:top;">:</td><td><div>200</div></td></tr><tr><td style="font-weight:bold;vertical-align:top;">view</td><td style="vertical-align:top;">:</td><td><div>default/index.html</div></td></tr></table></div>'
tRp224
sS'locals'
p225
(dp226
S'drop_expr'
p227
S"'ALTER TABLE %s DROP COLUMN %s;'"
p228
sS'sql_fields_aux'
p229
S"{'AdresseIP': {'sql': 'VARCHAR(512) NULL'}, 'AdresseMAC': {'sql': 'VARCHAR(512) NULL'}, 'CentreDeCouts': {'sql': 'VARCHAR(512) NULL'}, 'Compteur': {'sql': 'VARCHAR(512) NULL'}, 'CoutDAchat': {'sql': 'VARCHAR(512) NULL'}, 'DateAchat': {'sql': 'DATE NULL'}, 'Dimension': {'sql': 'VARCHAR(512) NULL'}, 'DureeDAmortissement': {'sql': 'VARCHAR(512) NULL'}, 'Etat': {'sql': 'VARCHAR(512) NULL'}, 'ExpirationDeLaGarantie': {'sql': 'VARCHAR(512) NULL'}, ...}"
p230
sS'tablename'
p231
S"'inv_cis'"
p232
sS'self'
p233
S'<pydal.migrator.Migrator object>'
p234
sS'db'
p235
S'<DAL uri="mssql4:******@S03VWPR00004.cemtl.rtss.qc.ca/unificace">'
p236
sS'fake_migrate'
p237
g175
sS'sql_fields_old'
p238
S'{\'adresseip\': {\'length\': 512, \'notnull\': False, \'raw_rname\': \'AdresseIP\', \'rname\': \'"AdresseIP"\', \'sortable\': 6, \'sql\': \'VARCHAR(512) NULL\', \'type\': \'string\', \'unique\': False}, \'adressemac\': {\'length\': 512, \'notnull\': False, \'raw_rname\': \'AdresseMAC\', \'rname\': \'"AdresseMAC"\', \'sortable\': 16, \'sql\': \'VARCHAR(512) NULL\', \'type\': \'string\', \'unique\': False}, \'centredecouts\': {\'length\': 512, \'notnull\': False, \'raw_rname\': \'CentreDeCouts\', \'rname\': \'"CentreDeCouts"\', \'sortable\': 12, \'sql\': \'VARCHAR(512) NULL\', \'type\': \'string\', \'unique\': False}, \'compteur\': {\'length\': 512, \'notnull\': False, \'raw_rname\': \'Compteur\', \'rname\': \'"Compteur"\', \'sortable\': 8, \'sql\': \'VARCHAR(512) NULL\', \'type\': \'string\', \'unique\': False}, \'coutdachat\': {\'length\': 512, \'notnull\': False, \'raw_rname\': \'CoutDAchat\', \'rname\': \'"CoutDAchat"\', \'sortable\': 29, \'sql\': \'VARCHAR(512) NULL\', \'type\': \'string\', \'unique\': False}, \'dateachat\': {\'length\': 512, \'notnull\': False, \'raw_rname\': \'DateAchat\', \'rname\': \'"DateAchat"\', \'sortable\': 14, \'sql\': \'DATE NULL\', \'type\': \'date\', \'unique\': False}, \'dimension\': {\'length\': 512, \'notnull\': False, \'raw_rname\': \'Dimension\', \'rname\': \'"Dimension"\', \'sortable\': 25, \'sql\': \'VARCHAR(512) NULL\', \'type\': \'string\', \'unique\': False}, \'dureedamortissement\': {\'length\': 512, \'notnull\': False, \'raw_rname\': \'DureeDAmortissement\', \'rname\': \'"DureeDAmortissement"\', \'sortable\': 28, \'sql\': \'VARCHAR(512) NULL\', \'type\': \'string\', \'unique\': False}, \'edit_by\': {\'length\': 512, \'notnull\': False, \'raw_rname\': \'edit_by\', \'rname\': \'"edit_by"\', \'sortable\': 32, \'sql\': \'INT NULL, CONSTRAINT "inv_cis_edit_by__constrain...) REFERENCES "auth_user" ("id") ON DELETE CASCADE\', \'type\': \'reference auth_user\', \'unique\': False}, \'edit_time\': {\'length\': 512, \'notnull\': False, \'raw_rname\': \'edit_time\', \'rname\': \'"edit_time"\', \'sortable\': 33, \'sql\': \'DATETIME NULL\', \'type\': \'datetime\', \'unique\': False}, ...}'
p239
sS'field_types'
p240
S"{'adresseip': 'string', 'adressemac': 'string', 'centredecouts': 'string', 'compteur': 'string', 'coutdachat': 'string', 'dateachat': 'date', 'dimension': 'string', 'dureedamortissement': 'string', 'edit_by': 'reference auth_user', 'edit_time': 'datetime', ...}"
p241
sS'table'
p242
S'<Table inv_cis (id, Nom, impression, impression_...ure, ExpirationDeLaGarantie, edit_by, edit_time)>'
p243
sS'sql_fields'
p244
S'{\'AdresseIP\': {\'length\': 512, \'notnull\': False, \'raw_rname\': \'AdresseIP\', \'rname\': \'"AdresseIP"\', \'sortable\': 6, \'sql\': \'VARCHAR(512) NULL\', \'type\': \'string\', \'unique\': False}, \'AdresseMAC\': {\'length\': 512, \'notnull\': False, \'raw_rname\': \'AdresseMAC\', \'rname\': \'"AdresseMAC"\', \'sortable\': 16, \'sql\': \'VARCHAR(512) NULL\', \'type\': \'string\', \'unique\': False}, \'CentreDeCouts\': {\'length\': 512, \'notnull\': False, \'raw_rname\': \'CentreDeCouts\', \'rname\': \'"CentreDeCouts"\', \'sortable\': 12, \'sql\': \'VARCHAR(512) NULL\', \'type\': \'string\', \'unique\': False}, \'Compteur\': {\'length\': 512, \'notnull\': False, \'raw_rname\': \'Compteur\', \'rname\': \'"Compteur"\', \'sortable\': 8, \'sql\': \'VARCHAR(512) NULL\', \'type\': \'string\', \'unique\': False}, \'CoutDAchat\': {\'length\': 512, \'notnull\': False, \'raw_rname\': \'CoutDAchat\', \'rname\': \'"CoutDAchat"\', \'sortable\': 29, \'sql\': \'VARCHAR(512) NULL\', \'type\': \'string\', \'unique\': False}, \'DateAchat\': {\'length\': 512, \'notnull\': False, \'raw_rname\': \'DateAchat\', \'rname\': \'"DateAchat"\', \'sortable\': 14, \'sql\': \'DATE NULL\', \'type\': \'date\', \'unique\': False}, \'Dimension\': {\'length\': 512, \'notnull\': False, \'raw_rname\': \'Dimension\', \'rname\': \'"Dimension"\', \'sortable\': 25, \'sql\': \'VARCHAR(512) NULL\', \'type\': \'string\', \'unique\': False}, \'DureeDAmortissement\': {\'length\': 512, \'notnull\': False, \'raw_rname\': \'DureeDAmortissement\', \'rname\': \'"DureeDAmortissement"\', \'sortable\': 28, \'sql\': \'VARCHAR(512) NULL\', \'type\': \'string\', \'unique\': False}, \'Etat\': {\'length\': 512, \'notnull\': False, \'raw_rname\': \'Etat\', \'rname\': \'"Etat"\', \'sortable\': 24, \'sql\': \'VARCHAR(512) NULL\', \'type\': \'string\', \'unique\': False}, \'ExpirationDeLaGarantie\': {\'length\': 512, \'notnull\': False, \'raw_rname\': \'ExpirationDeLaGarantie\', \'rname\': \'"ExpirationDeLaGarantie"\', \'sortable\': 31, \'sql\': \'VARCHAR(512) NULL\', \'type\': \'string\', \'unique\': False}, ...}'
p245
sS'logfile'
p246
S'None'
p247
sssS'traceback'
p248
S'Traceback (most recent call last):\n  File ".\\gluon\\restricted.py", line 219, in restricted\n    exec(ccode, environment)\n  File "C:\\Users\\unificace\\unificace\\web2py\\applications\\init\\models\\db.py", line 1191, in <module>\n    signature,\n  File "C:\\Users\\unificace\\unificace\\web2py\\gluon\\packages\\dal\\pydal\\base.py", line 586, in define_table\n    table = self.lazy_define_table(tablename, *fields, **args)\n  File "C:\\Users\\unificace\\unificace\\web2py\\gluon\\packages\\dal\\pydal\\base.py", line 620, in lazy_define_table\n    polymodel=polymodel)\n  File "C:\\Users\\unificace\\unificace\\web2py\\gluon\\packages\\dal\\pydal\\adapters\\base.py", line 797, in create_table\n    return self.migrator.create_table(*args, **kwargs)\n  File "C:\\Users\\unificace\\unificace\\web2py\\gluon\\packages\\dal\\pydal\\migrator.py", line 314, in create_table\n    fake_migrate=fake_migrate\n  File "C:\\Users\\unificace\\unificace\\web2py\\gluon\\packages\\dal\\pydal\\migrator.py", line 340, in migrate_table\n    sql_fields = dict(map(self._fix, iteritems(sql_fields)))\nMemoryError\n'
p249
s.