(dp1
S'output'
p2
S"<type 'exceptions.MemoryError'> "
p3
sS'layer'
p4
S'C:\\Users\\unificace\\unificace\\web2py\\applications\\init\\models\\db.py'
p5
sS'code'
p6
S'<code object <module> at 00000000029B67B0, file "C:\\Users\\unificace\\unificace\\web2py\\applications\\init\\models\\db.py", line 14>'
p7
sS'snapshot'
p8
(dp9
S'exception'
p10
(dp11
S'__getslice__'
p12
S"<method-wrapper '__getslice__' of exceptions.MemoryError object>"
p13
sS'__str__'
p14
S"<method-wrapper '__str__' of exceptions.MemoryError object>"
p15
sS'__reduce__'
p16
S'<built-in method __reduce__ of exceptions.MemoryError object>'
p17
sS'__dict__'
p18
S'{}'
p19
sS'message'
p20
S"''"
p21
sS'__sizeof__'
p22
S'<built-in method __sizeof__ of exceptions.MemoryError object>'
p23
sS'__init__'
p24
S"<method-wrapper '__init__' of exceptions.MemoryError object>"
p25
sS'__setattr__'
p26
S"<method-wrapper '__setattr__' of exceptions.MemoryError object>"
p27
sS'__reduce_ex__'
p28
S'<built-in method __reduce_ex__ of exceptions.MemoryError object>'
p29
sS'__new__'
p30
S'<built-in method __new__ of type object>'
p31
sS'__format__'
p32
S'<built-in method __format__ of exceptions.MemoryError object>'
p33
sS'__class__'
p34
S"<type 'exceptions.MemoryError'>"
p35
sS'__doc__'
p36
S"'Out of memory.'"
p37
sS'__getitem__'
p38
S"<method-wrapper '__getitem__' of exceptions.MemoryError object>"
p39
sS'__setstate__'
p40
S'<built-in method __setstate__ of exceptions.MemoryError object>'
p41
sS'__getattribute__'
p42
S"<method-wrapper '__getattribute__' of exceptions.MemoryError object>"
p43
sS'args'
p44
S'()'
p45
sS'__subclasshook__'
p46
S'<built-in method __subclasshook__ of type object>'
p47
sS'__unicode__'
p48
S'<built-in method __unicode__ of exceptions.MemoryError object>'
p49
sS'__delattr__'
p50
S"<method-wrapper '__delattr__' of exceptions.MemoryError object>"
p51
sS'__repr__'
p52
S"<method-wrapper '__repr__' of exceptions.MemoryError object>"
p53
sS'__hash__'
p54
S"<method-wrapper '__hash__' of exceptions.MemoryError object>"
p55
ssS'evalue'
p56
S''
sS'request'
p57
cgluon.html
XML_unpickle
p58
(S's\x05d\x00\x00<div><table><tr><td style="font-weight:bold;vertical-align:top;">ajax</td><td style="vertical-align:top;">:</td><td><div>False</div></td></tr><tr><td style="font-weight:bold;vertical-align:top;">application</td><td style="vertical-align:top;">:</td><td><div>init</div></td></tr><tr><td style="font-weight:bold;vertical-align:top;">args</td><td style="vertical-align:top;">:</td><td><div><table></table></div></td></tr><tr><td style="font-weight:bold;vertical-align:top;">cid</td><td style="vertical-align:top;">:</td><td><div>None</div></td></tr><tr><td style="font-weight:bold;vertical-align:top;">client</td><td style="vertical-align:top;">:</td><td><div>10.129.64.51</div></td></tr><tr><td style="font-weight:bold;vertical-align:top;">controller</td><td style="vertical-align:top;">:</td><td><div>default</div></td></tr><tr><td style="font-weight:bold;vertical-align:top;">cookies</td><td style="vertical-align:top;">:</td><td><div><table></table></div></td></tr><tr><td style="font-weight:bold;vertical-align:top;">env</td><td style="vertical-align:top;">:</td><td><div><table><tr><td style="font-weight:bold;vertical-align:top;">APPL_MD_PATH</td><td style="vertical-align:top;">:</td><td><div>/LM/W3SVC/2/ROOT</div></td></tr><tr><td style="font-weight:bold;vertical-align:top;">APPL_PHYSICAL_PATH</td><td style="vertical-align:top;">:</td><td><div>C:\\Users\\unificace\\unificace\\web2py\\</div></td></tr><tr><td style="font-weight:bold;vertical-align:top;">APP_POOL_CONFIG</td><td style="vertical-align:top;">:</td><td><div>C:\\inetpub\\temp\\apppools\\unificace\\unificace.config</div></td></tr><tr><td style="font-weight:bold;vertical-align:top;">APP_POOL_ID</td><td style="vertical-align:top;">:</td><td><div>unificace</div></td></tr><tr><td style="font-weight:bold;vertical-align:top;">AUTH_PASSWORD</td><td style="vertical-align:top;">:</td><td><div></div></td></tr><tr><td style="font-weight:bold;vertical-align:top;">AUTH_TYPE</td><td style="vertical-align:top;">:</td><td><div></div></td></tr><tr><td style="font-weight:bold;vertical-align:top;">AUTH_USER</td><td style="vertical-align:top;">:</td><td><div></div></td></tr><tr><td style="font-weight:bold;vertical-align:top;">CERT_COOKIE</td><td style="vertical-align:top;">:</td><td><div></div></td></tr><tr><td style="font-weight:bold;vertical-align:top;">CERT_FLAGS</td><td style="vertical-align:top;">:</td><td><div></div></td></tr><tr><td style="font-weight:bold;vertical-align:top;">CERT_ISSUER</td><td style="vertical-align:top;">:</td><td><div></div></td></tr><tr><td style="font-weight:bold;vertical-align:top;">CERT_SERIALNUMBER</td><td style="vertical-align:top;">:</td><td><div></div></td></tr><tr><td style="font-weight:bold;vertical-align:top;">CERT_SUBJECT</td><td style="vertical-align:top;">:</td><td><div></div></td></tr><tr><td style="font-weight:bold;vertical-align:top;">CONTENT_LENGTH</td><td style="vertical-align:top;">:</td><td><div>0</div></td></tr><tr><td style="font-weight:bold;vertical-align:top;">CONTENT_TYPE</td><td style="vertical-align:top;">:</td><td><div></div></td></tr><tr><td style="font-weight:bold;vertical-align:top;">DOCUMENT_ROOT</td><td style="vertical-align:top;">:</td><td><div>C:\\Users\\unificace\\unificace\\web2py</div></td></tr><tr><td style="font-weight:bold;vertical-align:top;">GATEWAY_INTERFACE</td><td style="vertical-align:top;">:</td><td><div>CGI/1.1</div></td></tr><tr><td style="font-weight:bold;vertical-align:top;">HTTPS</td><td style="vertical-align:top;">:</td><td><div>on</div></td></tr><tr><td style="font-weight:bold;vertical-align:top;">HTTPS_KEYSIZE</td><td style="vertical-align:top;">:</td><td><div>256</div></td></tr><tr><td style="font-weight:bold;vertical-align:top;">HTTPS_SECRETKEYSIZE</td><td style="vertical-align:top;">:</td><td><div>2048</div></td></tr><tr><td style="font-weight:bold;vertical-align:top;">HTTPS_SERVER_ISSUER</td><td style="vertical-align:top;">:</td><td><div>C=US, O=&quot;Entrust, Inc.&quot;, OU=See www.entrust.net/legal-terms, OU=&quot;(c) 2012 Entrust, Inc. - for authorized use only&quot;, CN=Entrust Certification Authority - L1K</div></td></tr><tr><td style="font-weight:bold;vertical-align:top;">HTTPS_SERVER_SUBJECT</td><td style="vertical-align:top;">:</td><td><div>C=CA, S=Quebec, L=Quebec, O=Minist\xe8re de la sant\xe9 et des services sociaux du Qu\xe9bec, CN=*.cemtl.rtss.qc.ca</div></td></tr><tr><td style="font-weight:bold;vertical-align:top;">HTTP_CONNECTION</td><td style="vertical-align:top;">:</td><td><div>Close</div></td></tr><tr><td style="font-weight:bold;vertical-align:top;">HTTP_CONTENT_LENGTH</td><td style="vertical-align:top;">:</td><td><div>0</div></td></tr><tr><td style="font-weight:bold;vertical-align:top;">HTTP_HOST</td><td style="vertical-align:top;">:</td><td><div>10.129.65.41:443</div></td></tr><tr><td style="font-weight:bold;vertical-align:top;">HTTP_X_ORIGINAL_URL</td><td style="vertical-align:top;">:</td><td><div>/</div></td></tr><tr><td style="font-weight:bold;vertical-align:top;">IIS_UrlRewriteModule</td><td style="vertical-align:top;">:</td><td><div>7.1.1980.0</div></td></tr><tr><td style="font-weight:bold;vertical-align:top;">IIS_WasUrlRewritten</td><td style="vertical-align:top;">:</td><td><div>1</div></td></tr><tr><td style="font-weight:bold;vertical-align:top;">INSTANCE_ID</td><td style="vertical-align:top;">:</td><td><div>2</div></td></tr><tr><td style="font-weight:bold;vertical-align:top;">INSTANCE_META_PATH</td><td style="vertical-align:top;">:</td><td><div>/LM/W3SVC/2</div></td></tr><tr><td style="font-weight:bold;vertical-align:top;">INSTANCE_NAME</td><td style="vertical-align:top;">:</td><td><div>UNIFICACE</div></td></tr><tr><td style="font-weight:bold;vertical-align:top;">LOCAL_ADDR</td><td style="vertical-align:top;">:</td><td><div>10.129.65.41</div></td></tr><tr><td style="font-weight:bold;vertical-align:top;">LOGON_USER</td><td style="vertical-align:top;">:</td><td><div></div></td></tr><tr><td style="font-weight:bold;vertical-align:top;">PATH_INFO</td><td style="vertical-align:top;">:</td><td><div>/</div></td></tr><tr><td style="font-weight:bold;vertical-align:top;">PATH_TRANSLATED</td><td style="vertical-align:top;">:</td><td><div>C:\\Users\\unificace\\unificace\\web2py\\handler.web2py\\</div></td></tr><tr><td style="font-weight:bold;vertical-align:top;">QUERY_STRING</td><td style="vertical-align:top;">:</td><td><div></div></td></tr><tr><td style="font-weight:bold;vertical-align:top;">REMOTE_ADDR</td><td style="vertical-align:top;">:</td><td><div>10.129.64.51</div></td></tr><tr><td style="font-weight:bold;vertical-align:top;">REMOTE_HOST</td><td style="vertical-align:top;">:</td><td><div>10.129.64.51</div></td></tr><tr><td style="font-weight:bold;vertical-align:top;">REMOTE_PORT</td><td style="vertical-align:top;">:</td><td><div>29628</div></td></tr><tr><td style="font-weight:bold;vertical-align:top;">REMOTE_USER</td><td style="vertical-align:top;">:</td><td><div></div></td></tr><tr><td style="font-weight:bold;vertical-align:top;">REQUEST_METHOD</td><td style="vertical-align:top;">:</td><td><div>HEAD</div></td></tr><tr><td style="font-weight:bold;vertical-align:top;">REQUEST_URI</td><td style="vertical-align:top;">:</td><td><div>/</div></td></tr><tr><td style="font-weight:bold;vertical-align:top;">SCRIPT_FILENAME</td><td style="vertical-align:top;">:</td><td><div>C:\\Users\\unificace\\unificace\\web2py\\handler.web2py</div></td></tr><tr><td style="font-weight:bold;vertical-align:top;">SCRIPT_NAME</td><td style="vertical-align:top;">:</td><td><div></div></td></tr><tr><td style="font-weight:bold;vertical-align:top;">SERVER_NAME</td><td style="vertical-align:top;">:</td><td><div>10.129.65.41</div></td></tr><tr><td style="font-weight:bold;vertical-align:top;">SERVER_PORT</td><td style="vertical-align:top;">:</td><td><div>443</div></td></tr><tr><td style="font-weight:bold;vertical-align:top;">SERVER_PORT_SECURE</td><td style="vertical-align:top;">:</td><td><div>1</div></td></tr><tr><td style="font-weight:bold;vertical-align:top;">SERVER_PROTOCOL</td><td style="vertical-align:top;">:</td><td><div>HTTP/1.1</div></td></tr><tr><td style="font-weight:bold;vertical-align:top;">SERVER_SOFTWARE</td><td style="vertical-align:top;">:</td><td><div>Microsoft-IIS/8.5</div></td></tr><tr><td style="font-weight:bold;vertical-align:top;">UNENCODED_URL</td><td style="vertical-align:top;">:</td><td><div>/</div></td></tr><tr><td style="font-weight:bold;vertical-align:top;">URL</td><td style="vertical-align:top;">:</td><td><div>/handler.web2py</div></td></tr><tr><td style="font-weight:bold;vertical-align:top;">app_folders</td><td style="vertical-align:top;">:</td><td><div>set([&#x27;C:\\\\Users\\\\unificace\\\\unificace\\\\web2py\\\\applications\\\\init\\\\&#x27;])</div></td></tr><tr><td style="font-weight:bold;vertical-align:top;">app_pool_config</td><td style="vertical-align:top;">:</td><td><div>C:\\inetpub\\temp\\apppools\\unificace\\unificace.config</div></td></tr><tr><td style="font-weight:bold;vertical-align:top;">app_pool_id</td><td style="vertical-align:top;">:</td><td><div>unificace</div></td></tr><tr><td style="font-weight:bold;vertical-align:top;">appl_md_path</td><td style="vertical-align:top;">:</td><td><div>/LM/W3SVC/2/ROOT</div></td></tr><tr><td style="font-weight:bold;vertical-align:top;">appl_physical_path</td><td style="vertical-align:top;">:</td><td><div>C:\\Users\\unificace\\unificace\\web2py\\</div></td></tr><tr><td style="font-weight:bold;vertical-align:top;">applications_parent</td><td style="vertical-align:top;">:</td><td><div>C:\\Users\\unificace\\unificace\\web2py</div></td></tr><tr><td style="font-weight:bold;vertical-align:top;">auth_password</td><td style="vertical-align:top;">:</td><td><div></div></td></tr><tr><td style="font-weight:bold;vertical-align:top;">auth_type</td><td style="vertical-align:top;">:</td><td><div></div></td></tr><tr><td style="font-weight:bold;vertical-align:top;">auth_user</td><td style="vertical-align:top;">:</td><td><div></div></td></tr><tr><td style="font-weight:bold;vertical-align:top;">cert_cookie</td><td style="vertical-align:top;">:</td><td><div></div></td></tr><tr><td style="font-weight:bold;vertical-align:top;">cert_flags</td><td style="vertical-align:top;">:</td><td><div></div></td></tr><tr><td style="font-weight:bold;vertical-align:top;">cert_issuer</td><td style="vertical-align:top;">:</td><td><div></div></td></tr><tr><td style="font-weight:bold;vertical-align:top;">cert_serialnumber</td><td style="vertical-align:top;">:</td><td><div></div></td></tr><tr><td style="font-weight:bold;vertical-align:top;">cert_subject</td><td style="vertical-align:top;">:</td><td><div></div></td></tr><tr><td style="font-weight:bold;vertical-align:top;">content_length</td><td style="vertical-align:top;">:</td><td><div>0</div></td></tr><tr><td style="font-weight:bold;vertical-align:top;">content_type</td><td style="vertical-align:top;">:</td><td><div></div></td></tr><tr><td style="font-weight:bold;vertical-align:top;">db_sessions</td><td style="vertical-align:top;">:</td><td><div>set([])</div></td></tr><tr><td style="font-weight:bold;vertical-align:top;">debugging</td><td style="vertical-align:top;">:</td><td><div>False</div></td></tr><tr><td style="font-weight:bold;vertical-align:top;">document_root</td><td style="vertical-align:top;">:</td><td><div>C:\\Users\\unificace\\unificace\\web2py</div></td></tr><tr><td style="font-weight:bold;vertical-align:top;">gateway_interface</td><td style="vertical-align:top;">:</td><td><div>CGI/1.1</div></td></tr><tr><td style="font-weight:bold;vertical-align:top;">gluon_parent</td><td style="vertical-align:top;">:</td><td><div>C:\\Users\\unificace\\unificace\\web2py</div></td></tr><tr><td style="font-weight:bold;vertical-align:top;">http_connection</td><td style="vertical-align:top;">:</td><td><div>Close</div></td></tr><tr><td style="font-weight:bold;vertical-align:top;">http_content_length</td><td style="vertical-align:top;">:</td><td><div>0</div></td></tr><tr><td style="font-weight:bold;vertical-align:top;">http_host</td><td style="vertical-align:top;">:</td><td><div>10.129.65.41:443</div></td></tr><tr><td style="font-weight:bold;vertical-align:top;">http_x_original_url</td><td style="vertical-align:top;">:</td><td><div>/</div></td></tr><tr><td style="font-weight:bold;vertical-align:top;">https</td><td style="vertical-align:top;">:</td><td><div>on</div></td></tr><tr><td style="font-weight:bold;vertical-align:top;">https_keysize</td><td style="vertical-align:top;">:</td><td><div>256</div></td></tr><tr><td style="font-weight:bold;vertical-align:top;">https_secretkeysize</td><td style="vertical-align:top;">:</td><td><div>2048</div></td></tr><tr><td style="font-weight:bold;vertical-align:top;">https_server_issuer</td><td style="vertical-align:top;">:</td><td><div>C=US, O=&quot;Entrust, Inc.&quot;, OU=See www.entrust.net/legal-terms, OU=&quot;(c) 2012 Entrust, Inc. - for authorized use only&quot;, CN=Entrust Certification Authority - L1K</div></td></tr><tr><td style="font-weight:bold;vertical-align:top;">https_server_subject</td><td style="vertical-align:top;">:</td><td><div>C=CA, S=Quebec, L=Quebec, O=Minist\xe8re de la sant\xe9 et des services sociaux du Qu\xe9bec, CN=*.cemtl.rtss.qc.ca</div></td></tr><tr><td style="font-weight:bold;vertical-align:top;">iis_urlrewritemodule</td><td style="vertical-align:top;">:</td><td><div>7.1.1980.0</div></td></tr><tr><td style="font-weight:bold;vertical-align:top;">iis_wasurlrewritten</td><td style="vertical-align:top;">:</td><td><div>1</div></td></tr><tr><td style="font-weight:bold;vertical-align:top;">instance_id</td><td style="vertical-align:top;">:</td><td><div>2</div></td></tr><tr><td style="font-weight:bold;vertical-align:top;">instance_meta_path</td><td style="vertical-align:top;">:</td><td><div>/LM/W3SVC/2</div></td></tr><tr><td style="font-weight:bold;vertical-align:top;">instance_name</td><td style="vertical-align:top;">:</td><td><div>UNIFICACE</div></td></tr><tr><td style="font-weight:bold;vertical-align:top;">is_jython</td><td style="vertical-align:top;">:</td><td><div>False</div></td></tr><tr><td style="font-weight:bold;vertical-align:top;">is_py2</td><td style="vertical-align:top;">:</td><td><div>True</div></td></tr><tr><td style="font-weight:bold;vertical-align:top;">is_pypy</td><td style="vertical-align:top;">:</td><td><div>False</div></td></tr><tr><td style="font-weight:bold;vertical-align:top;">is_source</td><td style="vertical-align:top;">:</td><td><div>True</div></td></tr><tr><td style="font-weight:bold;vertical-align:top;">local_addr</td><td style="vertical-align:top;">:</td><td><div>10.129.65.41</div></td></tr><tr><td style="font-weight:bold;vertical-align:top;">local_hosts</td><td style="vertical-align:top;">:</td><td><div><table><tr><td><div>S03VWPR00031</div></td></tr><tr><td><div>::ffff:127.0.0.1</div></td></tr><tr><td><div>::1</div></td></tr><tr><td><div>10.129.65.41</div></td></tr><tr><td><div>S03VWPR00031.cemtl.rtss.qc.ca</div></td></tr><tr><td><div>127.0.0.1</div></td></tr></table></div></td></tr><tr><td style="font-weight:bold;vertical-align:top;">logon_user</td><td style="vertical-align:top;">:</td><td><div></div></td></tr><tr><td style="font-weight:bold;vertical-align:top;">path_info</td><td style="vertical-align:top;">:</td><td><div>/</div></td></tr><tr><td style="font-weight:bold;vertical-align:top;">path_translated</td><td style="vertical-align:top;">:</td><td><div>C:\\Users\\unificace\\unificace\\web2py\\handler.web2py\\</div></td></tr><tr><td style="font-weight:bold;vertical-align:top;">query_string</td><td style="vertical-align:top;">:</td><td><div></div></td></tr><tr><td style="font-weight:bold;vertical-align:top;">remote_addr</td><td style="vertical-align:top;">:</td><td><div>10.129.64.51</div></td></tr><tr><td style="font-weight:bold;vertical-align:top;">remote_host</td><td style="vertical-align:top;">:</td><td><div>10.129.64.51</div></td></tr><tr><td style="font-weight:bold;vertical-align:top;">remote_port</td><td style="vertical-align:top;">:</td><td><div>29628</div></td></tr><tr><td style="font-weight:bold;vertical-align:top;">remote_user</td><td style="vertical-align:top;">:</td><td><div></div></td></tr><tr><td style="font-weight:bold;vertical-align:top;">request_method</td><td style="vertical-align:top;">:</td><td><div>HEAD</div></td></tr><tr><td style="font-weight:bold;vertical-align:top;">request_uri</td><td style="vertical-align:top;">:</td><td><div>/</div></td></tr><tr><td style="font-weight:bold;vertical-align:top;">script_filename</td><td style="vertical-align:top;">:</td><td><div>C:\\Users\\unificace\\unificace\\web2py\\handler.web2py</div></td></tr><tr><td style="font-weight:bold;vertical-align:top;">script_name</td><td style="vertical-align:top;">:</td><td><div></div></td></tr><tr><td style="font-weight:bold;vertical-align:top;">server_name</td><td style="vertical-align:top;">:</td><td><div>10.129.65.41</div></td></tr><tr><td style="font-weight:bold;vertical-align:top;">server_port</td><td style="vertical-align:top;">:</td><td><div>443</div></td></tr><tr><td style="font-weight:bold;vertical-align:top;">server_port_secure</td><td style="vertical-align:top;">:</td><td><div>1</div></td></tr><tr><td style="font-weight:bold;vertical-align:top;">server_protocol</td><td style="vertical-align:top;">:</td><td><div>HTTP/1.1</div></td></tr><tr><td style="font-weight:bold;vertical-align:top;">server_software</td><td style="vertical-align:top;">:</td><td><div>Microsoft-IIS/8.5</div></td></tr><tr><td style="font-weight:bold;vertical-align:top;">unencoded_url</td><td style="vertical-align:top;">:</td><td><div>/</div></td></tr><tr><td style="font-weight:bold;vertical-align:top;">url</td><td style="vertical-align:top;">:</td><td><div>/handler.web2py</div></td></tr><tr><td style="font-weight:bold;vertical-align:top;">web2py_path</td><td style="vertical-align:top;">:</td><td><div>C:\\Users\\unificace\\unificace\\web2py</div></td></tr><tr><td style="font-weight:bold;vertical-align:top;">web2py_version</td><td style="vertical-align:top;">:</td><td><div>2.16.1-stable+timestamp.2017.11.14.05.54.25</div></td></tr><tr><td style="font-weight:bold;vertical-align:top;">wfastcgi.http_x_original_url</td><td style="vertical-align:top;">:</td><td><div>/</div></td></tr><tr><td style="font-weight:bold;vertical-align:top;">wfastcgi_http_x_original_url</td><td style="vertical-align:top;">:</td><td><div>/</div></td></tr><tr><td style="font-weight:bold;vertical-align:top;">wsgi.errors</td><td style="vertical-align:top;">:</td><td><div>&lt;cStringIO.StringO object at 0x000000000599F490&gt;</div></td></tr><tr><td style="font-weight:bold;vertical-align:top;">wsgi.input</td><td style="vertical-align:top;">:</td><td><div>&lt;cStringIO.StringI object at 0x00000000031D4030&gt;</div></td></tr><tr><td style="font-weight:bold;vertical-align:top;">wsgi.multiprocess</td><td style="vertical-align:top;">:</td><td><div>True</div></td></tr><tr><td style="font-weight:bold;vertical-align:top;">wsgi.multithread</td><td style="vertical-align:top;">:</td><td><div>False</div></td></tr><tr><td style="font-weight:bold;vertical-align:top;">wsgi.path_info</td><td style="vertical-align:top;">:</td><td><div>/</div></td></tr><tr><td style="font-weight:bold;vertical-align:top;">wsgi.query_string</td><td style="vertical-align:top;">:</td><td><div></div></td></tr><tr><td style="font-weight:bold;vertical-align:top;">wsgi.run_once</td><td style="vertical-align:top;">:</td><td><div>False</div></td></tr><tr><td style="font-weight:bold;vertical-align:top;">wsgi.script_name</td><td style="vertical-align:top;">:</td><td><div></div></td></tr><tr><td style="font-weight:bold;vertical-align:top;">wsgi.url_scheme</td><td style="vertical-align:top;">:</td><td><div>https</div></td></tr><tr><td style="font-weight:bold;vertical-align:top;">wsgi.version</td><td style="vertical-align:top;">:</td><td><div><table><tr><td><div>1</div></td></tr><tr><td><div>0</div></td></tr></table></div></td></tr><tr><td style="font-weight:bold;vertical-align:top;">wsgi_errors</td><td style="vertical-align:top;">:</td><td><div>&lt;cStringIO.StringO object at 0x000000000599F490&gt;</div></td></tr><tr><td style="font-weight:bold;vertical-align:top;">wsgi_input</td><td style="vertical-align:top;">:</td><td><div>&lt;cStringIO.StringI object at 0x00000000031D4030&gt;</div></td></tr><tr><td style="font-weight:bold;vertical-align:top;">wsgi_multiprocess</td><td style="vertical-align:top;">:</td><td><div>True</div></td></tr><tr><td style="font-weight:bold;vertical-align:top;">wsgi_multithread</td><td style="vertical-align:top;">:</td><td><div>False</div></td></tr><tr><td style="font-weight:bold;vertical-align:top;">wsgi_path_info</td><td style="vertical-align:top;">:</td><td><div>/</div></td></tr><tr><td style="font-weight:bold;vertical-align:top;">wsgi_query_string</td><td style="vertical-align:top;">:</td><td><div></div></td></tr><tr><td style="font-weight:bold;vertical-align:top;">wsgi_run_once</td><td style="vertical-align:top;">:</td><td><div>False</div></td></tr><tr><td style="font-weight:bold;vertical-align:top;">wsgi_script_name</td><td style="vertical-align:top;">:</td><td><div></div></td></tr><tr><td style="font-weight:bold;vertical-align:top;">wsgi_url_scheme</td><td style="vertical-align:top;">:</td><td><div>https</div></td></tr><tr><td style="font-weight:bold;vertical-align:top;">wsgi_version</td><td style="vertical-align:top;">:</td><td><div><table><tr><td><div>1</div></td></tr><tr><td><div>0</div></td></tr></table></div></td></tr></table></div></td></tr><tr><td style="font-weight:bold;vertical-align:top;">extension</td><td style="vertical-align:top;">:</td><td><div>html</div></td></tr><tr><td style="font-weight:bold;vertical-align:top;">folder</td><td style="vertical-align:top;">:</td><td><div>C:\\Users\\unificace\\unificace\\web2py\\applications\\init\\</div></td></tr><tr><td style="font-weight:bold;vertical-align:top;">function</td><td style="vertical-align:top;">:</td><td><div>index</div></td></tr><tr><td style="font-weight:bold;vertical-align:top;">global_settings</td><td style="vertical-align:top;">:</td><td><div><table><tr><td style="font-weight:bold;vertical-align:top;">app_folders</td><td style="vertical-align:top;">:</td><td><div>set([&#x27;C:\\\\Users\\\\unificace\\\\unificace\\\\web2py\\\\applications\\\\init\\\\&#x27;])</div></td></tr><tr><td style="font-weight:bold;vertical-align:top;">applications_parent</td><td style="vertical-align:top;">:</td><td><div>C:\\Users\\unificace\\unificace\\web2py</div></td></tr><tr><td style="font-weight:bold;vertical-align:top;">db_sessions</td><td style="vertical-align:top;">:</td><td><div>set([])</div></td></tr><tr><td style="font-weight:bold;vertical-align:top;">debugging</td><td style="vertical-align:top;">:</td><td><div>False</div></td></tr><tr><td style="font-weight:bold;vertical-align:top;">gluon_parent</td><td style="vertical-align:top;">:</td><td><div>C:\\Users\\unificace\\unificace\\web2py</div></td></tr><tr><td style="font-weight:bold;vertical-align:top;">is_jython</td><td style="vertical-align:top;">:</td><td><div>False</div></td></tr><tr><td style="font-weight:bold;vertical-align:top;">is_py2</td><td style="vertical-align:top;">:</td><td><div>True</div></td></tr><tr><td style="font-weight:bold;vertical-align:top;">is_pypy</td><td style="vertical-align:top;">:</td><td><div>False</div></td></tr><tr><td style="font-weight:bold;vertical-align:top;">is_source</td><td style="vertical-align:top;">:</td><td><div>True</div></td></tr><tr><td style="font-weight:bold;vertical-align:top;">local_hosts</td><td style="vertical-align:top;">:</td><td><div><table><tr><td><div>S03VWPR00031</div></td></tr><tr><td><div>::ffff:127.0.0.1</div></td></tr><tr><td><div>::1</div></td></tr><tr><td><div>10.129.65.41</div></td></tr><tr><td><div>S03VWPR00031.cemtl.rtss.qc.ca</div></td></tr><tr><td><div>127.0.0.1</div></td></tr></table></div></td></tr><tr><td style="font-weight:bold;vertical-align:top;">web2py_version</td><td style="vertical-align:top;">:</td><td><div>2.16.1-stable+timestamp.2017.11.14.05.54.25</div></td></tr></table></div></td></tr><tr><td style="font-weight:bold;vertical-align:top;">is_https</td><td style="vertical-align:top;">:</td><td><div>True</div></td></tr><tr><td style="font-weight:bold;vertical-align:top;">is_local</td><td style="vertical-align:top;">:</td><td><div>False</div></td></tr><tr><td style="font-weight:bold;vertical-align:top;">is_restful</td><td style="vertical-align:top;">:</td><td><div>False</div></td></tr><tr><td style="font-weight:bold;vertical-align:top;">is_scheduler</td><td style="vertical-align:top;">:</td><td><div>False</div></td></tr><tr><td style="font-weight:bold;vertical-align:top;">is_shell</td><td style="vertical-align:top;">:</td><td><div>False</div></td></tr><tr><td style="font-weight:bold;vertical-align:top;">now</td><td style="vertical-align:top;">:</td><td><div>datetime.datetime(2022, 9, 3, 1, 54, 15, 500000)</div></td></tr><tr><td style="font-weight:bold;vertical-align:top;">raw_args</td><td style="vertical-align:top;">:</td><td><div></div></td></tr><tr><td style="font-weight:bold;vertical-align:top;">raw_extension</td><td style="vertical-align:top;">:</td><td><div>None</div></td></tr><tr><td style="font-weight:bold;vertical-align:top;">url</td><td style="vertical-align:top;">:</td><td><div>/</div></td></tr><tr><td style="font-weight:bold;vertical-align:top;">utcnow</td><td style="vertical-align:top;">:</td><td><div>datetime.datetime(2022, 9, 3, 5, 54, 15, 500000)</div></td></tr><tr><td style="font-weight:bold;vertical-align:top;">wsgi</td><td style="vertical-align:top;">:</td><td><div>&lt;gluon.main.LazyWSGI object at 0x000000000599FEF0&gt;</div></td></tr></table></div>'
tRp59
sS'frames'
p60
(lp61
(dp62
S'file'
p63
S'C:\\Users\\unificace\\unificace\\web2py\\gluon\\restricted.py'
p64
sS'dump'
p65
(dp66
S'environment'
p67
S"{'A': <class 'gluon.html.A'>, 'ANY_OF': <class 'gluon.validators.ANY_OF'>, 'ASSIGNJS': <function ASSIGNJS>, 'AppConfig': <function AppConfig>, 'Auth': <class 'gluon.tools.Auth'>, 'B': <class 'gluon.html.B'>, 'BEAUTIFY': <class 'gluon.html.BEAUTIFY'>, 'BODY': <class 'gluon.html.BODY'>, 'BR': <class 'gluon.html.BR'>, 'BUTTON': <class 'gluon.html.BUTTON'>, ...}"
p68
sS'ccode'
p69
S'<code object <module> at 00000000029B67B0, file ...\\web2py\\applications\\init\\models\\db.py", line 14>'
p70
ssS'lnum'
p71
I219
sS'lines'
p72
(dp73
I214
S'    if environment is None:'
p74
sI215
S'        environment = {}'
p75
sI216
S"    environment['__file__'] = layer"
p76
sI217
S"    environment['__name__'] = '__restricted__'"
p77
sI218
S'    try:'
p78
sI219
S'        exec(ccode, environment)'
p79
sI220
S'    except HTTP:'
p80
sI221
S'        raise'
p81
sI222
S'    except RestrictedError:'
p82
sI223
S'        # do not encapsulate (obfuscate) the original RestrictedError'
p83
ssS'call'
p84
S'(ccode=<code object <module> at 00000000029B67B0, file ...\\web2py\\applications\\init\\models\\db.py", line 14>, environment={\'A\': <class \'gluon.html.A\'>, \'ANY_OF\': <class \'gluon.validators.ANY_OF\'>, \'ASSIGNJS\': <function ASSIGNJS>, \'AppConfig\': <function AppConfig>, \'Auth\': <class \'gluon.tools.Auth\'>, \'B\': <class \'gluon.html.B\'>, \'BEAUTIFY\': <class \'gluon.html.BEAUTIFY\'>, \'BODY\': <class \'gluon.html.BODY\'>, \'BR\': <class \'gluon.html.BR\'>, \'BUTTON\': <class \'gluon.html.BUTTON\'>, ...}, layer=r\'C:\\Users\\unificace\\unificace\\web2py\\applications\\init\\models\\db.py\', scode=<code object <module> at 00000000029B67B0, file ...\\web2py\\applications\\init\\models\\db.py", line 14>)'
p85
sS'func'
p86
S'restricted'
p87
sa(dp88
g63
S'C:\\Users\\unificace\\unificace\\web2py\\applications\\init\\models\\db.py'
p89
sg65
(dp90
S'username'
p91
S'undefined'
p92
sS'builtinFalse'
p93
S'False'
p94
sS'builtinTrue'
p95
S'True'
p96
sS'auth'
p97
S'<gluon.tools.Auth object>'
p98
sS'auth.define_tables'
p99
S'<bound method Auth.define_tables of <gluon.tools.Auth object>>'
p100
sS'signature'
p101
g92
ssg71
I194
sg72
(dp102
I192
S"auth.settings.actions_disabled=['register','change_password','request_reset_password','retrieve_username','profile']"
p103
sI193
S'#auth.define_tables(username=False, signature=False) #original'
p104
sI194
S'auth.define_tables(username=True, signature=False)'
p105
sI195
S'auth.settings.create_user_groups=False'
p106
sI196
S'#auth.settings.remember_me_form = False'
p107
sI197
S'auth.settings.remember_me_form = True'
p108
sI198
S''
sI189
S''
sI190
S''
sI191
S"#auth.settings.actions_disabled=['register','change_password','request_reset_password','retrieve_username','profile']"
p109
ssg84
S'()'
p110
sg86
S'<module>'
p111
sa(dp112
g63
S'C:\\Users\\unificace\\unificace\\web2py\\gluon\\tools.py'
p113
sg65
(dp114
sg71
I2216
sg72
(dp115
I2211
S'        if fake_migrate is None:'
p116
sI2212
S'            fake_migrate = db._fake_migrate'
p117
sI2213
S'        settings = self.settings'
p118
sI2214
S'        settings.enable_tokens = enable_tokens'
p119
sI2215
S'        signature_list = \\'
p120
sI2216
S'            super(Auth, self).define_tables(username, signature, migrate, fake_migrate)._table_signature_list'
p121
sI2217
S''
sI2218
S'        now = current.request.now'
p122
sI2219
S"        reference_table_user = 'reference %s' % settings.table_user_name"
p123
sI2220
S'        if settings.cas_domains:'
p124
ssg84
S'(self=<gluon.tools.Auth object>, username=True, signature=False, enable_tokens=False, migrate=True, fake_migrate=False)'
p125
sg86
S'define_tables'
p126
sa(dp127
g63
S'C:\\Users\\unificace\\unificace\\web2py\\gluon\\authapi.py'
p128
sg65
(dp129
S'is_not_empty'
p130
S'<gluon.validators.IS_NOT_EMPTY object>'
p131
sS'requires'
p132
g92
ssg71
I296
sg72
(dp133
I291
S"                    Field('first_name', length=128, default='',"
p134
sI292
S'                          label=self.messages.label_first_name,'
p135
sI293
S'                          requires=is_not_empty),'
p136
sI294
S"                    Field('last_name', length=128, default='',"
p137
sI295
S'                          label=self.messages.label_last_name,'
p138
sI296
S'                          requires=is_not_empty),'
p139
sI297
S"                    Field('email', length=512, default='',"
p140
sI298
S'                          label=self.messages.label_email,'
p141
sI299
S'                          requires=is_unique_email),'
p142
sI300
S"                    Field('username', length=128, default='',"
p143
ssg84
S'(self=<gluon.tools.Auth object>, username=True, signature=False, migrate=True, fake_migrate=False)'
p144
sg86
g126
sa(dp145
g63
S'C:\\Users\\unificace\\unificace\\web2py\\gluon\\packages\\dal\\pydal\\objects.py'
p146
sg65
(dp147
S'self'
p148
S'<pydal.objects.Field object>'
p149
sS'self.widget'
p150
S'None'
p151
sS'widget'
p152
S'None'
p153
ssg71
I1637
sg72
(dp154
I1632
S'        self.options = options'
p155
sI1633
S'        self.uploadfield = uploadfield'
p156
sI1634
S'        self.uploadfolder = uploadfolder'
p157
sI1635
S'        self.uploadseparate = uploadseparate'
p158
sI1636
S'        self.uploadfs = uploadfs'
p159
sI1637
S'        self.widget = widget'
p160
sI1638
S'        self.comment = comment'
p161
sI1639
S'        self.writable = writable'
p162
sI1640
S'        self.readable = readable'
p163
sI1641
S'        self.searchable = searchable'
p164
ssg84
S"(self=<pydal.objects.Field object>, fieldname='last_name', type='string', length=128, default='', required=False, requires=<gluon.validators.IS_NOT_EMPTY object>, ondelete='CASCADE', notnull=False, unique=False, uploadfield=True, widget=None, label=<lazyT 'Last name'>, comment=None, writable=True, readable=True, searchable=True, listable=True, regex=None, options=None, update=None, authorize=None, autodelete=False, represent=None, uploadfolder=None, uploadseparate=False, uploadfs=None, compute=None, custom_store=None, custom_retrieve=None, custom_retrieve_file_properties=None, custom_delete=None, filter_in=None, filter_out=None, custom_qualifier=None, map_none=None, rname=None, **others={})"
p165
sg86
g24
sasS'pyver'
p166
S'Python 2.7.13: c:\\python27\\python.exe (prefix: c:\\python27)'
p167
sS'session'
p168
g58
(S's\x1a\x00\x00\x00<div><table></table></div>'
tRp169
sS'etype'
p170
S"<type 'exceptions.MemoryError'>"
p171
sS'date'
p172
S'Sat Sep 03 01:54:15 2022'
p173
sS'response'
p174
g58
(S's!\x16\x00\x00<div><table><tr><td style="font-weight:bold;vertical-align:top;">body</td><td style="vertical-align:top;">:</td><td><div>&lt;cStringIO.StringO object at 0x0000000004C94AE8&gt;</div></td></tr><tr><td style="font-weight:bold;vertical-align:top;">cookies</td><td style="vertical-align:top;">:</td><td><div><table><tr><td style="font-weight:bold;vertical-align:top;">session_id_init</td><td style="vertical-align:top;">:</td><td><div>10.129.64.51-1000fa01-42d2-45b9-8a86-ffd14c9e3b2e<table><tr><td style="font-weight:bold;vertical-align:top;">comment</td><td style="vertical-align:top;">:</td><td><div></div></td></tr><tr><td style="font-weight:bold;vertical-align:top;">domain</td><td style="vertical-align:top;">:</td><td><div></div></td></tr><tr><td style="font-weight:bold;vertical-align:top;">expires</td><td style="vertical-align:top;">:</td><td><div></div></td></tr><tr><td style="font-weight:bold;vertical-align:top;">httponly</td><td style="vertical-align:top;">:</td><td><div></div></td></tr><tr><td style="font-weight:bold;vertical-align:top;">max-age</td><td style="vertical-align:top;">:</td><td><div></div></td></tr><tr><td style="font-weight:bold;vertical-align:top;">path</td><td style="vertical-align:top;">:</td><td><div>/</div></td></tr><tr><td style="font-weight:bold;vertical-align:top;">secure</td><td style="vertical-align:top;">:</td><td><div></div></td></tr><tr><td style="font-weight:bold;vertical-align:top;">version</td><td style="vertical-align:top;">:</td><td><div></div></td></tr></table></div></td></tr></table></div></td></tr><tr><td style="font-weight:bold;vertical-align:top;">delimiters</td><td style="vertical-align:top;">:</td><td><div><table><tr><td><div>{{</div></td></tr><tr><td><div>}}</div></td></tr></table></div></td></tr><tr><td style="font-weight:bold;vertical-align:top;">files</td><td style="vertical-align:top;">:</td><td><div><table></table></div></td></tr><tr><td style="font-weight:bold;vertical-align:top;">flash</td><td style="vertical-align:top;">:</td><td><div></div></td></tr><tr><td style="font-weight:bold;vertical-align:top;">form_label_separator</td><td style="vertical-align:top;">:</td><td><div></div></td></tr><tr><td style="font-weight:bold;vertical-align:top;">formstyle</td><td style="vertical-align:top;">:</td><td><div>bootstrap3_inline</div></td></tr><tr><td style="font-weight:bold;vertical-align:top;">generic_patterns</td><td style="vertical-align:top;">:</td><td><div><table></table></div></td></tr><tr><td style="font-weight:bold;vertical-align:top;">headers</td><td style="vertical-align:top;">:</td><td><div><table><tr><td style="font-weight:bold;vertical-align:top;">X-Powered-By</td><td style="vertical-align:top;">:</td><td><div>web2py</div></td></tr></table></div></td></tr><tr><td style="font-weight:bold;vertical-align:top;">menu</td><td style="vertical-align:top;">:</td><td><div><table></table></div></td></tr><tr><td style="font-weight:bold;vertical-align:top;">meta</td><td style="vertical-align:top;">:</td><td><div><table></table></div></td></tr><tr><td style="font-weight:bold;vertical-align:top;">models_to_run</td><td style="vertical-align:top;">:</td><td><div><table><tr><td><div>^\\w+\\.py$</div></td></tr><tr><td><div>^default/\\w+\\.py$</div></td></tr><tr><td><div>^default/index/\\w+\\.py$</div></td></tr></table></div></td></tr><tr><td style="font-weight:bold;vertical-align:top;">postprocessing</td><td style="vertical-align:top;">:</td><td><div><table></table></div></td></tr><tr><td style="font-weight:bold;vertical-align:top;">session_client</td><td style="vertical-align:top;">:</td><td><div>10.129.64.51</div></td></tr><tr><td style="font-weight:bold;vertical-align:top;">session_cookie_compression_level</td><td style="vertical-align:top;">:</td><td><div>None</div></td></tr><tr><td style="font-weight:bold;vertical-align:top;">session_cookie_expires</td><td style="vertical-align:top;">:</td><td><div>None</div></td></tr><tr><td style="font-weight:bold;vertical-align:top;">session_data_name</td><td style="vertical-align:top;">:</td><td><div>session_data_init</div></td></tr><tr><td style="font-weight:bold;vertical-align:top;">session_file</td><td style="vertical-align:top;">:</td><td><div>None</div></td></tr><tr><td style="font-weight:bold;vertical-align:top;">session_filename</td><td style="vertical-align:top;">:</td><td><div>C:\\Users\\unificace\\unificace\\web2py\\applications\\init\\sessions\\10.129.64.51-1000fa01-42d2-45b9-8a86-ffd14c9e3b2e</div></td></tr><tr><td style="font-weight:bold;vertical-align:top;">session_hash</td><td style="vertical-align:top;">:</td><td><div>c0762cbf4baf7f9af97c051e7fcb8083</div></td></tr><tr><td style="font-weight:bold;vertical-align:top;">session_id</td><td style="vertical-align:top;">:</td><td><div>10.129.64.51-1000fa01-42d2-45b9-8a86-ffd14c9e3b2e</div></td></tr><tr><td style="font-weight:bold;vertical-align:top;">session_id_name</td><td style="vertical-align:top;">:</td><td><div>session_id_init</div></td></tr><tr><td style="font-weight:bold;vertical-align:top;">session_masterapp</td><td style="vertical-align:top;">:</td><td><div>init</div></td></tr><tr><td style="font-weight:bold;vertical-align:top;">session_new</td><td style="vertical-align:top;">:</td><td><div>True</div></td></tr><tr><td style="font-weight:bold;vertical-align:top;">session_storage_type</td><td style="vertical-align:top;">:</td><td><div>file</div></td></tr><tr><td style="font-weight:bold;vertical-align:top;">status</td><td style="vertical-align:top;">:</td><td><div>200</div></td></tr><tr><td style="font-weight:bold;vertical-align:top;">view</td><td style="vertical-align:top;">:</td><td><div>default/index.html</div></td></tr></table></div>'
tRp175
sS'locals'
p176
(dp177
S'authorize'
p178
S'None'
p179
sS'represent'
p180
S'None'
p181
sS'rname'
p182
S'None'
p183
sS'autodelete'
p184
g94
sS'filter_out'
p185
S'None'
p186
sS'uploadseparate'
p187
g94
sS'widget'
p188
S'None'
p189
sS'uploadfs'
p190
S'None'
p191
sS'custom_delete'
p192
S'None'
p193
sS'uploadfield'
p194
g96
sS'uploadfolder'
p195
S'None'
p196
sS'custom_qualifier'
p197
S'None'
p198
sS'regex'
p199
S'None'
p200
sS'searchable'
p201
g96
sS'map_none'
p202
S'None'
p203
sS'listable'
p204
g96
sS'self'
p205
S'<pydal.objects.Field object>'
p206
sS'readable'
p207
g96
sS'label'
p208
S"<lazyT 'Last name'>"
p209
sS'notnull'
p210
g94
sS'custom_retrieve_file_properties'
p211
S'None'
p212
sS'filter_in'
p213
S'None'
p214
sS'ondelete'
p215
S"'CASCADE'"
p216
sS'custom_store'
p217
S'None'
p218
sS'custom_retrieve'
p219
S'None'
p220
sS'update'
p221
S'None'
p222
sS'others'
p223
g19
sS'unique'
p224
g94
sS'writable'
p225
g96
sS'compute'
p226
S'None'
p227
sS'default'
p228
S"''"
p229
sS'type'
p230
S"'string'"
p231
sS'required'
p232
g94
sS'comment'
p233
S'None'
p234
sS'length'
p235
S'128'
p236
sS'fieldname'
p237
S"'last_name'"
p238
sS'requires'
p239
S'<gluon.validators.IS_NOT_EMPTY object>'
p240
sS'options'
p241
S'None'
p242
sssS'traceback'
p243
S'Traceback (most recent call last):\n  File ".\\gluon\\restricted.py", line 219, in restricted\n    exec(ccode, environment)\n  File "C:\\Users\\unificace\\unificace\\web2py\\applications\\init\\models\\db.py", line 194, in <module>\n    auth.define_tables(username=True, signature=False)\n  File ".\\gluon\\tools.py", line 2216, in define_tables\n    super(Auth, self).define_tables(username, signature, migrate, fake_migrate)._table_signature_list\n  File ".\\gluon\\authapi.py", line 296, in define_tables\n    requires=is_not_empty),\n  File "C:\\Users\\unificace\\unificace\\web2py\\gluon\\packages\\dal\\pydal\\objects.py", line 1637, in __init__\n    self.widget = widget\nMemoryError\n'
p244
s.