(dp1
S'output'
p2
S''
sS'layer'
p3
S'Framework'
p4
sS'code'
p5
S''
sS'snapshot'
p6
(dp7
sS'traceback'
p8
S'Traceback (most recent call last):\n  File ".\\gluon\\main.py", line 445, in wsgibase\n    serve_controller(request, response, session)\n  File ".\\gluon\\main.py", line 178, in serve_controller\n    run_models_in(environment)\n  File ".\\gluon\\compileapp.py", line 593, in run_models_in\n    restricted(ccode, environment, layer=model)\n  File ".\\gluon\\restricted.py", line 235, in restricted\n    raise RestrictedError(layer, scode, output, environment)\n  File ".\\gluon\\restricted.py", line 150, in __init__\n    self.snapshot = {}\nMemoryError\n'
p9
s.