(dp1
S'output'
p2
S"<type 'exceptions.IOError'> [Errno 12] Not enough space"
p3
sS'layer'
p4
S'C:\\Users\\unificace\\unificace\\web2py\\applications\\init\\models\\db.py'
p5
sS'code'
p6
S'<code object <module> at 0000000002A4F7B0, file "C:\\Users\\unificace\\unificace\\web2py\\applications\\init\\models\\db.py", line 14>'
p7
sS'snapshot'
p8
(dp9
sS'traceback'
p10
S'Traceback (most recent call last):\n  File ".\\gluon\\restricted.py", line 219, in restricted\n    exec(ccode, environment)\n  File "C:\\Users\\unificace\\unificace\\web2py\\applications\\init\\models\\db.py", line 857, in <module>\n    format=\'%(name)s %(windows_code)s Active: %(is_active)s\',\n  File "C:\\Users\\unificace\\unificace\\web2py\\gluon\\packages\\dal\\pydal\\base.py", line 586, in define_table\n    table = self.lazy_define_table(tablename, *fields, **args)\n  File "C:\\Users\\unificace\\unificace\\web2py\\gluon\\packages\\dal\\pydal\\base.py", line 620, in lazy_define_table\n    polymodel=polymodel)\n  File "C:\\Users\\unificace\\unificace\\web2py\\gluon\\packages\\dal\\pydal\\adapters\\base.py", line 797, in create_table\n    return self.migrator.create_table(*args, **kwargs)\n  File "C:\\Users\\unificace\\unificace\\web2py\\gluon\\packages\\dal\\pydal\\migrator.py", line 295, in create_table\n    sql_fields_old = pickle.load(tfile)\n  File "c:\\python27\\lib\\pickle.py", line 1384, in load\n    return Unpickler(file).load()\n  File "c:\\python27\\lib\\pickle.py", line 863, in load\n    key = read(1)\n  File "C:\\Users\\unificace\\unificace\\web2py\\gluon\\packages\\dal\\pydal\\contrib\\portalocker.py", line 194, in read\n    return self.file.read() if size is None else self.file.read(size)\nIOError: [Errno 12] Not enough space\n'
p11
s.