(dp1
S'output'
p2
S''
sS'layer'
p3
S'Framework'
p4
sS'code'
p5
S''
sS'snapshot'
p6
(dp7
sS'traceback'
p8
S'Traceback (most recent call last):\n  File ".\\gluon\\main.py", line 445, in wsgibase\n    serve_controller(request, response, session)\n  File ".\\gluon\\main.py", line 184, in serve_controller\n    page = run_view_in(response._view_environment)\n  File ".\\gluon\\compileapp.py", line 726, in run_view_in\n  File ".\\gluon\\restricted.py", line 205, in compile2\nMemoryError\n'
p9
s.