(dp1
S'output'
p2
S"<type 'exceptions.AttributeError'> 'NoneType' object has no attribute 'hour'"
p3
sS'layer'
p4
S'C:\\Users\\unificace\\unificace\\web2py\\applications\\init\\controllers/gestion_absence.py'
p5
sS'code'
p6
S'<code object <module> at 000000000537A1B0, file "C:\\Users\\unificace\\unificace\\web2py\\applications\\init\\controllers/gestion_absence.py", line 2>'
p7
sS'snapshot'
p8
(dp9
S'exception'
p10
(dp11
S'__getslice__'
p12
S"<method-wrapper '__getslice__' of exceptions.AttributeError object>"
p13
sS'__str__'
p14
S"<method-wrapper '__str__' of exceptions.AttributeError object>"
p15
sS'__reduce__'
p16
S'<built-in method __reduce__ of exceptions.AttributeError object>'
p17
sS'__dict__'
p18
S'{}'
p19
sS'message'
p20
S'"\'NoneType\' object has no attribute \'hour\'"'
p21
sS'__sizeof__'
p22
S'<built-in method __sizeof__ of exceptions.AttributeError object>'
p23
sS'__init__'
p24
S"<method-wrapper '__init__' of exceptions.AttributeError object>"
p25
sS'__setattr__'
p26
S"<method-wrapper '__setattr__' of exceptions.AttributeError object>"
p27
sS'__reduce_ex__'
p28
S'<built-in method __reduce_ex__ of exceptions.AttributeError object>'
p29
sS'__new__'
p30
S'<built-in method __new__ of type object>'
p31
sS'__format__'
p32
S'<built-in method __format__ of exceptions.AttributeError object>'
p33
sS'__class__'
p34
S"<type 'exceptions.AttributeError'>"
p35
sS'__doc__'
p36
S"'Attribute not found.'"
p37
sS'__getitem__'
p38
S"<method-wrapper '__getitem__' of exceptions.AttributeError object>"
p39
sS'__setstate__'
p40
S'<built-in method __setstate__ of exceptions.AttributeError object>'
p41
sS'__getattribute__'
p42
S"<method-wrapper '__getattribute__' of exceptions.AttributeError object>"
p43
sS'args'
p44
S'("\'NoneType\' object has no attribute \'hour\'",)'
p45
sS'__subclasshook__'
p46
S'<built-in method __subclasshook__ of type object>'
p47
sS'__unicode__'
p48
S'<built-in method __unicode__ of exceptions.AttributeError object>'
p49
sS'__delattr__'
p50
S"<method-wrapper '__delattr__' of exceptions.AttributeError object>"
p51
sS'__repr__'
p52
S"<method-wrapper '__repr__' of exceptions.AttributeError object>"
p53
sS'__hash__'
p54
S"<method-wrapper '__hash__' of exceptions.AttributeError object>"
p55
ssS'evalue'
p56
S"'NoneType' object has no attribute 'hour'"
p57
sS'request'
p58
cgluon.html
XML_unpickle
p59
(S's\xa0\x84\x00\x00<div><table><tr><td style="font-weight:bold;vertical-align:top;">ajax</td><td style="vertical-align:top;">:</td><td><div>False</div></td></tr><tr><td style="font-weight:bold;vertical-align:top;">application</td><td style="vertical-align:top;">:</td><td><div>init</div></td></tr><tr><td style="font-weight:bold;vertical-align:top;">args</td><td style="vertical-align:top;">:</td><td><div><table><tr><td><div>INFRA_ABSENCE</div></td></tr></table></div></td></tr><tr><td style="font-weight:bold;vertical-align:top;">cid</td><td style="vertical-align:top;">:</td><td><div>None</div></td></tr><tr><td style="font-weight:bold;vertical-align:top;">client</td><td style="vertical-align:top;">:</td><td><div>10.252.111.164</div></td></tr><tr><td style="font-weight:bold;vertical-align:top;">controller</td><td style="vertical-align:top;">:</td><td><div>gestion_absence</div></td></tr><tr><td style="font-weight:bold;vertical-align:top;">cookies</td><td style="vertical-align:top;">:</td><td><div><table><tr><td style="font-weight:bold;vertical-align:top;">session_id_init</td><td style="vertical-align:top;">:</td><td><div>10.252.111.164-4432a88d-fe89-4f65-8497-42eb16dfa362<table><tr><td style="font-weight:bold;vertical-align:top;">comment</td><td style="vertical-align:top;">:</td><td><div></div></td></tr><tr><td style="font-weight:bold;vertical-align:top;">domain</td><td style="vertical-align:top;">:</td><td><div></div></td></tr><tr><td style="font-weight:bold;vertical-align:top;">expires</td><td style="vertical-align:top;">:</td><td><div></div></td></tr><tr><td style="font-weight:bold;vertical-align:top;">httponly</td><td style="vertical-align:top;">:</td><td><div></div></td></tr><tr><td style="font-weight:bold;vertical-align:top;">max-age</td><td style="vertical-align:top;">:</td><td><div></div></td></tr><tr><td style="font-weight:bold;vertical-align:top;">path</td><td style="vertical-align:top;">:</td><td><div></div></td></tr><tr><td style="font-weight:bold;vertical-align:top;">secure</td><td style="vertical-align:top;">:</td><td><div></div></td></tr><tr><td style="font-weight:bold;vertical-align:top;">version</td><td style="vertical-align:top;">:</td><td><div></div></td></tr></table></div></td></tr></table></div></td></tr><tr><td style="font-weight:bold;vertical-align:top;">env</td><td style="vertical-align:top;">:</td><td><div><table><tr><td style="font-weight:bold;vertical-align:top;">APPL_MD_PATH</td><td style="vertical-align:top;">:</td><td><div>/LM/W3SVC/2/ROOT</div></td></tr><tr><td style="font-weight:bold;vertical-align:top;">APPL_PHYSICAL_PATH</td><td style="vertical-align:top;">:</td><td><div>C:\\Users\\unificace\\unificace\\web2py\\</div></td></tr><tr><td style="font-weight:bold;vertical-align:top;">APP_POOL_CONFIG</td><td style="vertical-align:top;">:</td><td><div>C:\\inetpub\\temp\\apppools\\unificace\\unificace.config</div></td></tr><tr><td style="font-weight:bold;vertical-align:top;">APP_POOL_ID</td><td style="vertical-align:top;">:</td><td><div>unificace</div></td></tr><tr><td style="font-weight:bold;vertical-align:top;">AUTH_PASSWORD</td><td style="vertical-align:top;">:</td><td><div></div></td></tr><tr><td style="font-weight:bold;vertical-align:top;">AUTH_TYPE</td><td style="vertical-align:top;">:</td><td><div></div></td></tr><tr><td style="font-weight:bold;vertical-align:top;">AUTH_USER</td><td style="vertical-align:top;">:</td><td><div></div></td></tr><tr><td style="font-weight:bold;vertical-align:top;">CERT_COOKIE</td><td style="vertical-align:top;">:</td><td><div></div></td></tr><tr><td style="font-weight:bold;vertical-align:top;">CERT_FLAGS</td><td style="vertical-align:top;">:</td><td><div></div></td></tr><tr><td style="font-weight:bold;vertical-align:top;">CERT_ISSUER</td><td style="vertical-align:top;">:</td><td><div></div></td></tr><tr><td style="font-weight:bold;vertical-align:top;">CERT_SERIALNUMBER</td><td style="vertical-align:top;">:</td><td><div></div></td></tr><tr><td style="font-weight:bold;vertical-align:top;">CERT_SUBJECT</td><td style="vertical-align:top;">:</td><td><div></div></td></tr><tr><td style="font-weight:bold;vertical-align:top;">CONTENT_LENGTH</td><td style="vertical-align:top;">:</td><td><div>1537</div></td></tr><tr><td style="font-weight:bold;vertical-align:top;">CONTENT_TYPE</td><td style="vertical-align:top;">:</td><td><div>multipart/form-data; boundary=----WebKitFormBoundaryteQEvO6uakTwkqR0</div></td></tr><tr><td style="font-weight:bold;vertical-align:top;">DOCUMENT_ROOT</td><td style="vertical-align:top;">:</td><td><div>C:\\Users\\unificace\\unificace\\web2py</div></td></tr><tr><td style="font-weight:bold;vertical-align:top;">GATEWAY_INTERFACE</td><td style="vertical-align:top;">:</td><td><div>CGI/1.1</div></td></tr><tr><td style="font-weight:bold;vertical-align:top;">HTTPS</td><td style="vertical-align:top;">:</td><td><div>on</div></td></tr><tr><td style="font-weight:bold;vertical-align:top;">HTTPS_KEYSIZE</td><td style="vertical-align:top;">:</td><td><div>256</div></td></tr><tr><td style="font-weight:bold;vertical-align:top;">HTTPS_SECRETKEYSIZE</td><td style="vertical-align:top;">:</td><td><div>2048</div></td></tr><tr><td style="font-weight:bold;vertical-align:top;">HTTPS_SERVER_ISSUER</td><td style="vertical-align:top;">:</td><td><div>C=US, O=&quot;Entrust, Inc.&quot;, OU=See www.entrust.net/legal-terms, OU=&quot;(c) 2012 Entrust, Inc. - for authorized use only&quot;, CN=Entrust Certification Authority - L1K</div></td></tr><tr><td style="font-weight:bold;vertical-align:top;">HTTPS_SERVER_SUBJECT</td><td style="vertical-align:top;">:</td><td><div>C=CA, S=Quebec, L=Quebec, O=Minist\xe8re de la sant\xe9 et des services sociaux du Qu\xe9bec, CN=*.cemtl.rtss.qc.ca</div></td></tr><tr><td style="font-weight:bold;vertical-align:top;">HTTP_ACCEPT</td><td style="vertical-align:top;">:</td><td><div>text/html,application/xhtml+xml,application/xml;q=0.9,image/webp,image/apng,*/*;q=0.8,application/signed-exchange;v=b3;q=0.9</div></td></tr><tr><td style="font-weight:bold;vertical-align:top;">HTTP_ACCEPT_ENCODING</td><td style="vertical-align:top;">:</td><td><div>gzip, deflate, br</div></td></tr><tr><td style="font-weight:bold;vertical-align:top;">HTTP_ACCEPT_LANGUAGE</td><td style="vertical-align:top;">:</td><td><div>fr,fr-FR;q=0.9,en;q=0.8,en-GB;q=0.7,en-US;q=0.6</div></td></tr><tr><td style="font-weight:bold;vertical-align:top;">HTTP_CACHE_CONTROL</td><td style="vertical-align:top;">:</td><td><div>max-age=0</div></td></tr><tr><td style="font-weight:bold;vertical-align:top;">HTTP_CONNECTION</td><td style="vertical-align:top;">:</td><td><div>keep-alive</div></td></tr><tr><td style="font-weight:bold;vertical-align:top;">HTTP_CONTENT_LENGTH</td><td style="vertical-align:top;">:</td><td><div>1537</div></td></tr><tr><td style="font-weight:bold;vertical-align:top;">HTTP_CONTENT_TYPE</td><td style="vertical-align:top;">:</td><td><div>multipart/form-data; boundary=----WebKitFormBoundaryteQEvO6uakTwkqR0</div></td></tr><tr><td style="font-weight:bold;vertical-align:top;">HTTP_COOKIE</td><td style="vertical-align:top;">:</td><td><div>session_id_init=10.252.111.164-4432a88d-fe89-4f65-8497-42eb16dfa362</div></td></tr><tr><td style="font-weight:bold;vertical-align:top;">HTTP_HOST</td><td style="vertical-align:top;">:</td><td><div>unificace2.cemtl.rtss.qc.ca</div></td></tr><tr><td style="font-weight:bold;vertical-align:top;">HTTP_ORIGIN</td><td style="vertical-align:top;">:</td><td><div>https://unificace2.cemtl.rtss.qc.ca</div></td></tr><tr><td style="font-weight:bold;vertical-align:top;">HTTP_REFERER</td><td style="vertical-align:top;">:</td><td><div>https://unificace2.cemtl.rtss.qc.ca/init/gestion_absence/index/INFRA%20ABSENCE</div></td></tr><tr><td style="font-weight:bold;vertical-align:top;">HTTP_SEC_CH_UA</td><td style="vertical-align:top;">:</td><td><div>&quot; Not A;Brand&quot;;v=&quot;99&quot;, &quot;Chromium&quot;;v=&quot;98&quot;, &quot;Microsoft Edge&quot;;v=&quot;98&quot;</div></td></tr><tr><td style="font-weight:bold;vertical-align:top;">HTTP_SEC_CH_UA_MOBILE</td><td style="vertical-align:top;">:</td><td><div>?0</div></td></tr><tr><td style="font-weight:bold;vertical-align:top;">HTTP_SEC_CH_UA_PLATFORM</td><td style="vertical-align:top;">:</td><td><div>&quot;Windows&quot;</div></td></tr><tr><td style="font-weight:bold;vertical-align:top;">HTTP_SEC_FETCH_DEST</td><td style="vertical-align:top;">:</td><td><div>document</div></td></tr><tr><td style="font-weight:bold;vertical-align:top;">HTTP_SEC_FETCH_MODE</td><td style="vertical-align:top;">:</td><td><div>navigate</div></td></tr><tr><td style="font-weight:bold;vertical-align:top;">HTTP_SEC_FETCH_SITE</td><td style="vertical-align:top;">:</td><td><div>same-origin</div></td></tr><tr><td style="font-weight:bold;vertical-align:top;">HTTP_SEC_FETCH_USER</td><td style="vertical-align:top;">:</td><td><div>?1</div></td></tr><tr><td style="font-weight:bold;vertical-align:top;">HTTP_UPGRADE_INSECURE_REQUESTS</td><td style="vertical-align:top;">:</td><td><div>1</div></td></tr><tr><td style="font-weight:bold;vertical-align:top;">HTTP_USER_AGENT</td><td style="vertical-align:top;">:</td><td><div>Mozilla/5.0 (Windows NT 10.0; Win64; x64) AppleWebKit/537.36 (KHTML, like Gecko) Chrome/98.0.4758.102 Safari/537.36 Edg/98.0.1108.56</div></td></tr><tr><td style="font-weight:bold;vertical-align:top;">HTTP_X_ORIGINAL_URL</td><td style="vertical-align:top;">:</td><td><div>/init/gestion_absence/index/INFRA%20ABSENCE</div></td></tr><tr><td style="font-weight:bold;vertical-align:top;">IIS_UrlRewriteModule</td><td style="vertical-align:top;">:</td><td><div>7.1.1980.0</div></td></tr><tr><td style="font-weight:bold;vertical-align:top;">IIS_WasUrlRewritten</td><td style="vertical-align:top;">:</td><td><div>1</div></td></tr><tr><td style="font-weight:bold;vertical-align:top;">INSTANCE_ID</td><td style="vertical-align:top;">:</td><td><div>2</div></td></tr><tr><td style="font-weight:bold;vertical-align:top;">INSTANCE_META_PATH</td><td style="vertical-align:top;">:</td><td><div>/LM/W3SVC/2</div></td></tr><tr><td style="font-weight:bold;vertical-align:top;">INSTANCE_NAME</td><td style="vertical-align:top;">:</td><td><div>UNIFICACE</div></td></tr><tr><td style="font-weight:bold;vertical-align:top;">LOCAL_ADDR</td><td style="vertical-align:top;">:</td><td><div>10.129.65.41</div></td></tr><tr><td style="font-weight:bold;vertical-align:top;">LOGON_USER</td><td style="vertical-align:top;">:</td><td><div></div></td></tr><tr><td style="font-weight:bold;vertical-align:top;">PATH_INFO</td><td style="vertical-align:top;">:</td><td><div>/init/gestion_absence/index/INFRA%20ABSENCE</div></td></tr><tr><td style="font-weight:bold;vertical-align:top;">PATH_TRANSLATED</td><td style="vertical-align:top;">:</td><td><div>C:\\Users\\unificace\\unificace\\web2py\\handler.web2py\\init\\gestion_absence\\index\\INFRA ABSENCE</div></td></tr><tr><td style="font-weight:bold;vertical-align:top;">QUERY_STRING</td><td style="vertical-align:top;">:</td><td><div></div></td></tr><tr><td style="font-weight:bold;vertical-align:top;">REMOTE_ADDR</td><td style="vertical-align:top;">:</td><td><div>10.252.111.164</div></td></tr><tr><td style="font-weight:bold;vertical-align:top;">REMOTE_HOST</td><td style="vertical-align:top;">:</td><td><div>10.252.111.164</div></td></tr><tr><td style="font-weight:bold;vertical-align:top;">REMOTE_PORT</td><td style="vertical-align:top;">:</td><td><div>59600</div></td></tr><tr><td style="font-weight:bold;vertical-align:top;">REMOTE_USER</td><td style="vertical-align:top;">:</td><td><div></div></td></tr><tr><td style="font-weight:bold;vertical-align:top;">REQUEST_METHOD</td><td style="vertical-align:top;">:</td><td><div>POST</div></td></tr><tr><td style="font-weight:bold;vertical-align:top;">REQUEST_URI</td><td style="vertical-align:top;">:</td><td><div>/init/gestion_absence/index/INFRA ABSENCE</div></td></tr><tr><td style="font-weight:bold;vertical-align:top;">SCRIPT_FILENAME</td><td style="vertical-align:top;">:</td><td><div>C:\\Users\\unificace\\unificace\\web2py\\handler.web2py</div></td></tr><tr><td style="font-weight:bold;vertical-align:top;">SCRIPT_NAME</td><td style="vertical-align:top;">:</td><td><div></div></td></tr><tr><td style="font-weight:bold;vertical-align:top;">SERVER_NAME</td><td style="vertical-align:top;">:</td><td><div>unificace2.cemtl.rtss.qc.ca</div></td></tr><tr><td style="font-weight:bold;vertical-align:top;">SERVER_PORT</td><td style="vertical-align:top;">:</td><td><div>443</div></td></tr><tr><td style="font-weight:bold;vertical-align:top;">SERVER_PORT_SECURE</td><td style="vertical-align:top;">:</td><td><div>1</div></td></tr><tr><td style="font-weight:bold;vertical-align:top;">SERVER_PROTOCOL</td><td style="vertical-align:top;">:</td><td><div>HTTP/1.1</div></td></tr><tr><td style="font-weight:bold;vertical-align:top;">SERVER_SOFTWARE</td><td style="vertical-align:top;">:</td><td><div>Microsoft-IIS/8.5</div></td></tr><tr><td style="font-weight:bold;vertical-align:top;">UNENCODED_URL</td><td style="vertical-align:top;">:</td><td><div>/init/gestion_absence/index/INFRA%20ABSENCE</div></td></tr><tr><td style="font-weight:bold;vertical-align:top;">URL</td><td style="vertical-align:top;">:</td><td><div>/handler.web2py</div></td></tr><tr><td style="font-weight:bold;vertical-align:top;">app_folders</td><td style="vertical-align:top;">:</td><td><div>set([&#x27;C:\\\\Users\\\\unificace\\\\unificace\\\\web2py\\\\applications\\\\init\\\\&#x27;])</div></td></tr><tr><td style="font-weight:bold;vertical-align:top;">app_pool_config</td><td style="vertical-align:top;">:</td><td><div>C:\\inetpub\\temp\\apppools\\unificace\\unificace.config</div></td></tr><tr><td style="font-weight:bold;vertical-align:top;">app_pool_id</td><td style="vertical-align:top;">:</td><td><div>unificace</div></td></tr><tr><td style="font-weight:bold;vertical-align:top;">appl_md_path</td><td style="vertical-align:top;">:</td><td><div>/LM/W3SVC/2/ROOT</div></td></tr><tr><td style="font-weight:bold;vertical-align:top;">appl_physical_path</td><td style="vertical-align:top;">:</td><td><div>C:\\Users\\unificace\\unificace\\web2py\\</div></td></tr><tr><td style="font-weight:bold;vertical-align:top;">applications_parent</td><td style="vertical-align:top;">:</td><td><div>C:\\Users\\unificace\\unificace\\web2py</div></td></tr><tr><td style="font-weight:bold;vertical-align:top;">auth_password</td><td style="vertical-align:top;">:</td><td><div></div></td></tr><tr><td style="font-weight:bold;vertical-align:top;">auth_type</td><td style="vertical-align:top;">:</td><td><div></div></td></tr><tr><td style="font-weight:bold;vertical-align:top;">auth_user</td><td style="vertical-align:top;">:</td><td><div></div></td></tr><tr><td style="font-weight:bold;vertical-align:top;">cert_cookie</td><td style="vertical-align:top;">:</td><td><div></div></td></tr><tr><td style="font-weight:bold;vertical-align:top;">cert_flags</td><td style="vertical-align:top;">:</td><td><div></div></td></tr><tr><td style="font-weight:bold;vertical-align:top;">cert_issuer</td><td style="vertical-align:top;">:</td><td><div></div></td></tr><tr><td style="font-weight:bold;vertical-align:top;">cert_serialnumber</td><td style="vertical-align:top;">:</td><td><div></div></td></tr><tr><td style="font-weight:bold;vertical-align:top;">cert_subject</td><td style="vertical-align:top;">:</td><td><div></div></td></tr><tr><td style="font-weight:bold;vertical-align:top;">content_length</td><td style="vertical-align:top;">:</td><td><div>1537</div></td></tr><tr><td style="font-weight:bold;vertical-align:top;">content_type</td><td style="vertical-align:top;">:</td><td><div>multipart/form-data; boundary=----WebKitFormBoundaryteQEvO6uakTwkqR0</div></td></tr><tr><td style="font-weight:bold;vertical-align:top;">db_sessions</td><td style="vertical-align:top;">:</td><td><div>set([])</div></td></tr><tr><td style="font-weight:bold;vertical-align:top;">debugging</td><td style="vertical-align:top;">:</td><td><div>False</div></td></tr><tr><td style="font-weight:bold;vertical-align:top;">document_root</td><td style="vertical-align:top;">:</td><td><div>C:\\Users\\unificace\\unificace\\web2py</div></td></tr><tr><td style="font-weight:bold;vertical-align:top;">gateway_interface</td><td style="vertical-align:top;">:</td><td><div>CGI/1.1</div></td></tr><tr><td style="font-weight:bold;vertical-align:top;">gluon_parent</td><td style="vertical-align:top;">:</td><td><div>C:\\Users\\unificace\\unificace\\web2py</div></td></tr><tr><td style="font-weight:bold;vertical-align:top;">http_accept</td><td style="vertical-align:top;">:</td><td><div>text/html,application/xhtml+xml,application/xml;q=0.9,image/webp,image/apng,*/*;q=0.8,application/signed-exchange;v=b3;q=0.9</div></td></tr><tr><td style="font-weight:bold;vertical-align:top;">http_accept_encoding</td><td style="vertical-align:top;">:</td><td><div>gzip, deflate, br</div></td></tr><tr><td style="font-weight:bold;vertical-align:top;">http_accept_language</td><td style="vertical-align:top;">:</td><td><div>fr,fr-FR;q=0.9,en;q=0.8,en-GB;q=0.7,en-US;q=0.6</div></td></tr><tr><td style="font-weight:bold;vertical-align:top;">http_cache_control</td><td style="vertical-align:top;">:</td><td><div>max-age=0</div></td></tr><tr><td style="font-weight:bold;vertical-align:top;">http_connection</td><td style="vertical-align:top;">:</td><td><div>keep-alive</div></td></tr><tr><td style="font-weight:bold;vertical-align:top;">http_content_length</td><td style="vertical-align:top;">:</td><td><div>1537</div></td></tr><tr><td style="font-weight:bold;vertical-align:top;">http_content_type</td><td style="vertical-align:top;">:</td><td><div>multipart/form-data; boundary=----WebKitFormBoundaryteQEvO6uakTwkqR0</div></td></tr><tr><td style="font-weight:bold;vertical-align:top;">http_cookie</td><td style="vertical-align:top;">:</td><td><div>session_id_init=10.252.111.164-4432a88d-fe89-4f65-8497-42eb16dfa362</div></td></tr><tr><td style="font-weight:bold;vertical-align:top;">http_host</td><td style="vertical-align:top;">:</td><td><div>unificace2.cemtl.rtss.qc.ca</div></td></tr><tr><td style="font-weight:bold;vertical-align:top;">http_origin</td><td style="vertical-align:top;">:</td><td><div>https://unificace2.cemtl.rtss.qc.ca</div></td></tr><tr><td style="font-weight:bold;vertical-align:top;">http_referer</td><td style="vertical-align:top;">:</td><td><div>https://unificace2.cemtl.rtss.qc.ca/init/gestion_absence/index/INFRA%20ABSENCE</div></td></tr><tr><td style="font-weight:bold;vertical-align:top;">http_sec_ch_ua</td><td style="vertical-align:top;">:</td><td><div>&quot; Not A;Brand&quot;;v=&quot;99&quot;, &quot;Chromium&quot;;v=&quot;98&quot;, &quot;Microsoft Edge&quot;;v=&quot;98&quot;</div></td></tr><tr><td style="font-weight:bold;vertical-align:top;">http_sec_ch_ua_mobile</td><td style="vertical-align:top;">:</td><td><div>?0</div></td></tr><tr><td style="font-weight:bold;vertical-align:top;">http_sec_ch_ua_platform</td><td style="vertical-align:top;">:</td><td><div>&quot;Windows&quot;</div></td></tr><tr><td style="font-weight:bold;vertical-align:top;">http_sec_fetch_dest</td><td style="vertical-align:top;">:</td><td><div>document</div></td></tr><tr><td style="font-weight:bold;vertical-align:top;">http_sec_fetch_mode</td><td style="vertical-align:top;">:</td><td><div>navigate</div></td></tr><tr><td style="font-weight:bold;vertical-align:top;">http_sec_fetch_site</td><td style="vertical-align:top;">:</td><td><div>same-origin</div></td></tr><tr><td style="font-weight:bold;vertical-align:top;">http_sec_fetch_user</td><td style="vertical-align:top;">:</td><td><div>?1</div></td></tr><tr><td style="font-weight:bold;vertical-align:top;">http_upgrade_insecure_requests</td><td style="vertical-align:top;">:</td><td><div>1</div></td></tr><tr><td style="font-weight:bold;vertical-align:top;">http_user_agent</td><td style="vertical-align:top;">:</td><td><div>Mozilla/5.0 (Windows NT 10.0; Win64; x64) AppleWebKit/537.36 (KHTML, like Gecko) Chrome/98.0.4758.102 Safari/537.36 Edg/98.0.1108.56</div></td></tr><tr><td style="font-weight:bold;vertical-align:top;">http_x_original_url</td><td style="vertical-align:top;">:</td><td><div>/init/gestion_absence/index/INFRA%20ABSENCE</div></td></tr><tr><td style="font-weight:bold;vertical-align:top;">https</td><td style="vertical-align:top;">:</td><td><div>on</div></td></tr><tr><td style="font-weight:bold;vertical-align:top;">https_keysize</td><td style="vertical-align:top;">:</td><td><div>256</div></td></tr><tr><td style="font-weight:bold;vertical-align:top;">https_secretkeysize</td><td style="vertical-align:top;">:</td><td><div>2048</div></td></tr><tr><td style="font-weight:bold;vertical-align:top;">https_server_issuer</td><td style="vertical-align:top;">:</td><td><div>C=US, O=&quot;Entrust, Inc.&quot;, OU=See www.entrust.net/legal-terms, OU=&quot;(c) 2012 Entrust, Inc. - for authorized use only&quot;, CN=Entrust Certification Authority - L1K</div></td></tr><tr><td style="font-weight:bold;vertical-align:top;">https_server_subject</td><td style="vertical-align:top;">:</td><td><div>C=CA, S=Quebec, L=Quebec, O=Minist\xe8re de la sant\xe9 et des services sociaux du Qu\xe9bec, CN=*.cemtl.rtss.qc.ca</div></td></tr><tr><td style="font-weight:bold;vertical-align:top;">iis_urlrewritemodule</td><td style="vertical-align:top;">:</td><td><div>7.1.1980.0</div></td></tr><tr><td style="font-weight:bold;vertical-align:top;">iis_wasurlrewritten</td><td style="vertical-align:top;">:</td><td><div>1</div></td></tr><tr><td style="font-weight:bold;vertical-align:top;">instance_id</td><td style="vertical-align:top;">:</td><td><div>2</div></td></tr><tr><td style="font-weight:bold;vertical-align:top;">instance_meta_path</td><td style="vertical-align:top;">:</td><td><div>/LM/W3SVC/2</div></td></tr><tr><td style="font-weight:bold;vertical-align:top;">instance_name</td><td style="vertical-align:top;">:</td><td><div>UNIFICACE</div></td></tr><tr><td style="font-weight:bold;vertical-align:top;">is_jython</td><td style="vertical-align:top;">:</td><td><div>False</div></td></tr><tr><td style="font-weight:bold;vertical-align:top;">is_py2</td><td style="vertical-align:top;">:</td><td><div>True</div></td></tr><tr><td style="font-weight:bold;vertical-align:top;">is_pypy</td><td style="vertical-align:top;">:</td><td><div>False</div></td></tr><tr><td style="font-weight:bold;vertical-align:top;">is_source</td><td style="vertical-align:top;">:</td><td><div>True</div></td></tr><tr><td style="font-weight:bold;vertical-align:top;">local_addr</td><td style="vertical-align:top;">:</td><td><div>10.129.65.41</div></td></tr><tr><td style="font-weight:bold;vertical-align:top;">local_hosts</td><td style="vertical-align:top;">:</td><td><div><table><tr><td><div>S03VWPR00031</div></td></tr><tr><td><div>::ffff:127.0.0.1</div></td></tr><tr><td><div>::1</div></td></tr><tr><td><div>10.129.65.41</div></td></tr><tr><td><div>S03VWPR00031.cemtl.rtss.qc.ca</div></td></tr><tr><td><div>127.0.0.1</div></td></tr></table></div></td></tr><tr><td style="font-weight:bold;vertical-align:top;">logon_user</td><td style="vertical-align:top;">:</td><td><div></div></td></tr><tr><td style="font-weight:bold;vertical-align:top;">path_info</td><td style="vertical-align:top;">:</td><td><div>/init/gestion_absence/index/INFRA%20ABSENCE</div></td></tr><tr><td style="font-weight:bold;vertical-align:top;">path_translated</td><td style="vertical-align:top;">:</td><td><div>C:\\Users\\unificace\\unificace\\web2py\\handler.web2py\\init\\gestion_absence\\index\\INFRA ABSENCE</div></td></tr><tr><td style="font-weight:bold;vertical-align:top;">query_string</td><td style="vertical-align:top;">:</td><td><div></div></td></tr><tr><td style="font-weight:bold;vertical-align:top;">remote_addr</td><td style="vertical-align:top;">:</td><td><div>10.252.111.164</div></td></tr><tr><td style="font-weight:bold;vertical-align:top;">remote_host</td><td style="vertical-align:top;">:</td><td><div>10.252.111.164</div></td></tr><tr><td style="font-weight:bold;vertical-align:top;">remote_port</td><td style="vertical-align:top;">:</td><td><div>59600</div></td></tr><tr><td style="font-weight:bold;vertical-align:top;">remote_user</td><td style="vertical-align:top;">:</td><td><div></div></td></tr><tr><td style="font-weight:bold;vertical-align:top;">request_method</td><td style="vertical-align:top;">:</td><td><div>POST</div></td></tr><tr><td style="font-weight:bold;vertical-align:top;">request_uri</td><td style="vertical-align:top;">:</td><td><div>/init/gestion_absence/index/INFRA ABSENCE</div></td></tr><tr><td style="font-weight:bold;vertical-align:top;">script_filename</td><td style="vertical-align:top;">:</td><td><div>C:\\Users\\unificace\\unificace\\web2py\\handler.web2py</div></td></tr><tr><td style="font-weight:bold;vertical-align:top;">script_name</td><td style="vertical-align:top;">:</td><td><div></div></td></tr><tr><td style="font-weight:bold;vertical-align:top;">server_name</td><td style="vertical-align:top;">:</td><td><div>unificace2.cemtl.rtss.qc.ca</div></td></tr><tr><td style="font-weight:bold;vertical-align:top;">server_port</td><td style="vertical-align:top;">:</td><td><div>443</div></td></tr><tr><td style="font-weight:bold;vertical-align:top;">server_port_secure</td><td style="vertical-align:top;">:</td><td><div>1</div></td></tr><tr><td style="font-weight:bold;vertical-align:top;">server_protocol</td><td style="vertical-align:top;">:</td><td><div>HTTP/1.1</div></td></tr><tr><td style="font-weight:bold;vertical-align:top;">server_software</td><td style="vertical-align:top;">:</td><td><div>Microsoft-IIS/8.5</div></td></tr><tr><td style="font-weight:bold;vertical-align:top;">unencoded_url</td><td style="vertical-align:top;">:</td><td><div>/init/gestion_absence/index/INFRA%20ABSENCE</div></td></tr><tr><td style="font-weight:bold;vertical-align:top;">url</td><td style="vertical-align:top;">:</td><td><div>/handler.web2py</div></td></tr><tr><td style="font-weight:bold;vertical-align:top;">web2py_path</td><td style="vertical-align:top;">:</td><td><div>C:\\Users\\unificace\\unificace\\web2py</div></td></tr><tr><td style="font-weight:bold;vertical-align:top;">web2py_version</td><td style="vertical-align:top;">:</td><td><div>2.16.1-stable+timestamp.2017.11.14.05.54.25</div></td></tr><tr><td style="font-weight:bold;vertical-align:top;">wfastcgi.http_x_original_url</td><td style="vertical-align:top;">:</td><td><div>/init/gestion_absence/index/INFRA%20ABSENCE</div></td></tr><tr><td style="font-weight:bold;vertical-align:top;">wfastcgi_http_x_original_url</td><td style="vertical-align:top;">:</td><td><div>/init/gestion_absence/index/INFRA%20ABSENCE</div></td></tr><tr><td style="font-weight:bold;vertical-align:top;">wsgi.errors</td><td style="vertical-align:top;">:</td><td><div>&lt;cStringIO.StringO object at 0x000000000580F490&gt;</div></td></tr><tr><td style="font-weight:bold;vertical-align:top;">wsgi.input</td><td style="vertical-align:top;">:</td><td><div>&lt;cStringIO.StringI object at 0x000000000282FA48&gt;</div></td></tr><tr><td style="font-weight:bold;vertical-align:top;">wsgi.multiprocess</td><td style="vertical-align:top;">:</td><td><div>True</div></td></tr><tr><td style="font-weight:bold;vertical-align:top;">wsgi.multithread</td><td style="vertical-align:top;">:</td><td><div>False</div></td></tr><tr><td style="font-weight:bold;vertical-align:top;">wsgi.path_info</td><td style="vertical-align:top;">:</td><td><div>/init/gestion_absence/index/INFRA%20ABSENCE</div></td></tr><tr><td style="font-weight:bold;vertical-align:top;">wsgi.query_string</td><td style="vertical-align:top;">:</td><td><div></div></td></tr><tr><td style="font-weight:bold;vertical-align:top;">wsgi.run_once</td><td style="vertical-align:top;">:</td><td><div>False</div></td></tr><tr><td style="font-weight:bold;vertical-align:top;">wsgi.script_name</td><td style="vertical-align:top;">:</td><td><div></div></td></tr><tr><td style="font-weight:bold;vertical-align:top;">wsgi.url_scheme</td><td style="vertical-align:top;">:</td><td><div>https</div></td></tr><tr><td style="font-weight:bold;vertical-align:top;">wsgi.version</td><td style="vertical-align:top;">:</td><td><div><table><tr><td><div>1</div></td></tr><tr><td><div>0</div></td></tr></table></div></td></tr><tr><td style="font-weight:bold;vertical-align:top;">wsgi_errors</td><td style="vertical-align:top;">:</td><td><div>&lt;cStringIO.StringO object at 0x000000000580F490&gt;</div></td></tr><tr><td style="font-weight:bold;vertical-align:top;">wsgi_input</td><td style="vertical-align:top;">:</td><td><div>&lt;cStringIO.StringI object at 0x000000000282FA48&gt;</div></td></tr><tr><td style="font-weight:bold;vertical-align:top;">wsgi_multiprocess</td><td style="vertical-align:top;">:</td><td><div>True</div></td></tr><tr><td style="font-weight:bold;vertical-align:top;">wsgi_multithread</td><td style="vertical-align:top;">:</td><td><div>False</div></td></tr><tr><td style="font-weight:bold;vertical-align:top;">wsgi_path_info</td><td style="vertical-align:top;">:</td><td><div>/init/gestion_absence/index/INFRA%20ABSENCE</div></td></tr><tr><td style="font-weight:bold;vertical-align:top;">wsgi_query_string</td><td style="vertical-align:top;">:</td><td><div></div></td></tr><tr><td style="font-weight:bold;vertical-align:top;">wsgi_run_once</td><td style="vertical-align:top;">:</td><td><div>False</div></td></tr><tr><td style="font-weight:bold;vertical-align:top;">wsgi_script_name</td><td style="vertical-align:top;">:</td><td><div></div></td></tr><tr><td style="font-weight:bold;vertical-align:top;">wsgi_url_scheme</td><td style="vertical-align:top;">:</td><td><div>https</div></td></tr><tr><td style="font-weight:bold;vertical-align:top;">wsgi_version</td><td style="vertical-align:top;">:</td><td><div><table><tr><td><div>1</div></td></tr><tr><td><div>0</div></td></tr></table></div></td></tr></table></div></td></tr><tr><td style="font-weight:bold;vertical-align:top;">extension</td><td style="vertical-align:top;">:</td><td><div>html</div></td></tr><tr><td style="font-weight:bold;vertical-align:top;">folder</td><td style="vertical-align:top;">:</td><td><div>C:\\Users\\unificace\\unificace\\web2py\\applications\\init\\</div></td></tr><tr><td style="font-weight:bold;vertical-align:top;">function</td><td style="vertical-align:top;">:</td><td><div>index</div></td></tr><tr><td style="font-weight:bold;vertical-align:top;">global_settings</td><td style="vertical-align:top;">:</td><td><div><table><tr><td style="font-weight:bold;vertical-align:top;">app_folders</td><td style="vertical-align:top;">:</td><td><div>set([&#x27;C:\\\\Users\\\\unificace\\\\unificace\\\\web2py\\\\applications\\\\init\\\\&#x27;])</div></td></tr><tr><td style="font-weight:bold;vertical-align:top;">applications_parent</td><td style="vertical-align:top;">:</td><td><div>C:\\Users\\unificace\\unificace\\web2py</div></td></tr><tr><td style="font-weight:bold;vertical-align:top;">db_sessions</td><td style="vertical-align:top;">:</td><td><div>set([])</div></td></tr><tr><td style="font-weight:bold;vertical-align:top;">debugging</td><td style="vertical-align:top;">:</td><td><div>False</div></td></tr><tr><td style="font-weight:bold;vertical-align:top;">gluon_parent</td><td style="vertical-align:top;">:</td><td><div>C:\\Users\\unificace\\unificace\\web2py</div></td></tr><tr><td style="font-weight:bold;vertical-align:top;">is_jython</td><td style="vertical-align:top;">:</td><td><div>False</div></td></tr><tr><td style="font-weight:bold;vertical-align:top;">is_py2</td><td style="vertical-align:top;">:</td><td><div>True</div></td></tr><tr><td style="font-weight:bold;vertical-align:top;">is_pypy</td><td style="vertical-align:top;">:</td><td><div>False</div></td></tr><tr><td style="font-weight:bold;vertical-align:top;">is_source</td><td style="vertical-align:top;">:</td><td><div>True</div></td></tr><tr><td style="font-weight:bold;vertical-align:top;">local_hosts</td><td style="vertical-align:top;">:</td><td><div><table><tr><td><div>S03VWPR00031</div></td></tr><tr><td><div>::ffff:127.0.0.1</div></td></tr><tr><td><div>::1</div></td></tr><tr><td><div>10.129.65.41</div></td></tr><tr><td><div>S03VWPR00031.cemtl.rtss.qc.ca</div></td></tr><tr><td><div>127.0.0.1</div></td></tr></table></div></td></tr><tr><td style="font-weight:bold;vertical-align:top;">web2py_version</td><td style="vertical-align:top;">:</td><td><div>2.16.1-stable+timestamp.2017.11.14.05.54.25</div></td></tr></table></div></td></tr><tr><td style="font-weight:bold;vertical-align:top;">is_https</td><td style="vertical-align:top;">:</td><td><div>True</div></td></tr><tr><td style="font-weight:bold;vertical-align:top;">is_local</td><td style="vertical-align:top;">:</td><td><div>False</div></td></tr><tr><td style="font-weight:bold;vertical-align:top;">is_restful</td><td style="vertical-align:top;">:</td><td><div>False</div></td></tr><tr><td style="font-weight:bold;vertical-align:top;">is_scheduler</td><td style="vertical-align:top;">:</td><td><div>False</div></td></tr><tr><td style="font-weight:bold;vertical-align:top;">is_shell</td><td style="vertical-align:top;">:</td><td><div>False</div></td></tr><tr><td style="font-weight:bold;vertical-align:top;">now</td><td style="vertical-align:top;">:</td><td><div>datetime.datetime(2022, 2, 22, 14, 53, 0, 463000)</div></td></tr><tr><td style="font-weight:bold;vertical-align:top;">raw_args</td><td style="vertical-align:top;">:</td><td><div>INFRA ABSENCE</div></td></tr><tr><td style="font-weight:bold;vertical-align:top;">raw_extension</td><td style="vertical-align:top;">:</td><td><div>None</div></td></tr><tr><td style="font-weight:bold;vertical-align:top;">url</td><td style="vertical-align:top;">:</td><td><div>/init/gestion_absence/index/INFRA%20ABSENCE</div></td></tr><tr><td style="font-weight:bold;vertical-align:top;">utcnow</td><td style="vertical-align:top;">:</td><td><div>datetime.datetime(2022, 2, 22, 19, 53, 0, 463000)</div></td></tr><tr><td style="font-weight:bold;vertical-align:top;">wsgi</td><td style="vertical-align:top;">:</td><td><div>&lt;gluon.main.LazyWSGI object at 0x000000000580FB00&gt;</div></td></tr></table></div>'
tRp60
sS'frames'
p61
(lp62
(dp63
S'file'
p64
S'C:\\Users\\unificace\\unificace\\web2py\\gluon\\restricted.py'
p65
sS'dump'
p66
(dp67
S'environment'
p68
S"{'A': <class 'gluon.html.A'>, 'ANY_OF': <class 'gluon.validators.ANY_OF'>, 'ASSIGNJS': <function ASSIGNJS>, 'AppConfig': <function AppConfig>, 'Auth': <class 'gluon.tools.Auth'>, 'B': <class 'gluon.html.B'>, 'BEAUTIFY': <class 'gluon.html.BEAUTIFY'>, 'BODY': <class 'gluon.html.BODY'>, 'BR': <class 'gluon.html.BR'>, 'BUTTON': <class 'gluon.html.BUTTON'>, ...}"
p69
sS'ccode'
p70
S'<code object <module> at 000000000537A1B0, file ...ons\\init\\controllers/gestion_absence.py", line 2>'
p71
ssS'lnum'
p72
I219
sS'lines'
p73
(dp74
I214
S'    if environment is None:'
p75
sI215
S'        environment = {}'
p76
sI216
S"    environment['__file__'] = layer"
p77
sI217
S"    environment['__name__'] = '__restricted__'"
p78
sI218
S'    try:'
p79
sI219
S'        exec(ccode, environment)'
p80
sI220
S'    except HTTP:'
p81
sI221
S'        raise'
p82
sI222
S'    except RestrictedError:'
p83
sI223
S'        # do not encapsulate (obfuscate) the original RestrictedError'
p84
ssS'call'
p85
S'(ccode=<code object <module> at 000000000537A1B0, file ...ons\\init\\controllers/gestion_absence.py", line 2>, environment={\'A\': <class \'gluon.html.A\'>, \'ANY_OF\': <class \'gluon.validators.ANY_OF\'>, \'ASSIGNJS\': <function ASSIGNJS>, \'AppConfig\': <function AppConfig>, \'Auth\': <class \'gluon.tools.Auth\'>, \'B\': <class \'gluon.html.B\'>, \'BEAUTIFY\': <class \'gluon.html.BEAUTIFY\'>, \'BODY\': <class \'gluon.html.BODY\'>, \'BR\': <class \'gluon.html.BR\'>, \'BUTTON\': <class \'gluon.html.BUTTON\'>, ...}, layer=r\'C:\\Users\\unificace\\unificace\\web2py\\applications\\init\\controllers/gestion_absence.py\', scode=<code object <module> at 000000000537A1B0, file ...ons\\init\\controllers/gestion_absence.py", line 2>)'
p86
sS'func'
p87
S'restricted'
p88
sa(dp89
g64
S'C:\\Users\\unificace\\unificace\\web2py\\applications\\init\\controllers\\gestion_absence.py'
p90
sg66
(dp91
sg72
I930
sg73
(dp92
I928
S''
sI919
S'    else:'
p93
sI920
S'        this_begin=this_day #just for return no error'
p94
sI921
S'    return (this_resource,this_begin)'
p95
sI922
S''
sI923
S''
sI924
S'def download():'
p96
sI925
S'    import os'
p97
sI926
S"    path=os.path.join(request.folder,'uploads',request.args[0])"
p98
sI927
S'    return response.stream(path)'
p99
ssg85
S'()'
p100
sg87
S'<module>'
p101
sa(dp102
g64
S'C:\\Users\\unificace\\unificace\\web2py\\gluon\\globals.py'
p103
sg66
(dp104
S'self'
p105
S'undefined'
p106
sS'f'
S'<function index>'
p107
ssg72
I419
sg73
(dp108
I416
S'        self.menu = []             # used by the default view layout'
p109
sI417
S'        self.files = []            # used by web2py_ajax.html'
p110
sI418
S'        self._vars = None'
p111
sI419
S'        self._caller = lambda f: f()'
p112
sI420
S'        self._view_environment = None'
p113
sI421
S'        self._custom_commit = None'
p114
sI422
S'        self._custom_rollback = None'
p115
sI423
S"        self.generic_patterns = ['*']"
p116
sI414
S"        self.flash = ''            # used by the default view layout"
p117
sI415
S'        self.meta = Storage()      # used by web2py_ajax.html'
p118
ssg85
S'(f=<function index>)'
p119
sg87
S'<lambda>'
p120
sa(dp121
g64
S'C:\\Users\\unificace\\unificace\\web2py\\applications\\init\\controllers\\gestion_absence.py'
p122
sg66
(dp123
S'r.start_time.hour'
p124
g106
sS'value_hour_begin'
p125
S"'9'"
p126
sS'r'
S'<Row {\'title\': \'SALIM DRAAOUI\', \'start_time\': No..."reservation"."resources" = 1263)>, \'id\': 1263L}>'
p127
sS'r.start_time'
p128
S'None'
p129
ssg72
I250
sg73
(dp130
I245
S'                else:'
p131
sI246
S'                    r=db(db.resources.id==int(request.vars.resource)).select(db.resources.id,db.resources.title,db.resources.start_time,db.resources.end_time)[0]'
p132
sI247
S'                    value_resource=r.id'
p133
sI248
S'                    value_title=r.title'
p134
sI249
S"                    value_description=''"
p135
sI250
S'                    value_hour_begin=r.start_time.hour'
p136
sI251
S'                    value_minute_begin=r.start_time.minute'
p137
sI252
S'                    value_hour_end=r.end_time.hour'
p138
sI253
S'                    value_minute_end=r.end_time.minute'
p139
sI254
S'                    #msg=str(dir(r.start_time))'
p140
ssg85
S'()'
p141
sg87
S'index'
p142
sasS'pyver'
p143
S'Python 2.7.13: c:\\python27\\python.exe (prefix: c:\\python27)'
p144
sS'session'
p145
g59
(S's~\t\x00\x00<div><table><tr><td style="font-weight:bold;vertical-align:top;">auth</td><td style="vertical-align:top;">:</td><td><div><table><tr><td style="font-weight:bold;vertical-align:top;">expiration</td><td style="vertical-align:top;">:</td><td><div>2592000</div></td></tr><tr><td style="font-weight:bold;vertical-align:top;">hmac_key</td><td style="vertical-align:top;">:</td><td><div>40a8b957-f1df-4e03-9429-c7cff3fba7ab</div></td></tr><tr><td style="font-weight:bold;vertical-align:top;">last_visit</td><td style="vertical-align:top;">:</td><td><div>datetime.datetime(2022, 2, 22, 14, 49, 33, 106000)</div></td></tr><tr><td style="font-weight:bold;vertical-align:top;">remember_me</td><td style="vertical-align:top;">:</td><td><div>True</div></td></tr><tr><td style="font-weight:bold;vertical-align:top;">user</td><td style="vertical-align:top;">:</td><td><div><table><tr><td style="font-weight:bold;vertical-align:top;">email</td><td style="vertical-align:top;">:</td><td><div></div></td></tr><tr><td style="font-weight:bold;vertical-align:top;">first_name</td><td style="vertical-align:top;">:</td><td><div>t2-ghas8302</div></td></tr><tr><td style="font-weight:bold;vertical-align:top;">id</td><td style="vertical-align:top;">:</td><td><div>4351L</div></td></tr><tr><td style="font-weight:bold;vertical-align:top;">last_name</td><td style="vertical-align:top;">:</td><td><div></div></td></tr><tr><td style="font-weight:bold;vertical-align:top;">registration_id</td><td style="vertical-align:top;">:</td><td><div>t2-ghas8302</div></td></tr><tr><td style="font-weight:bold;vertical-align:top;">registration_key</td><td style="vertical-align:top;">:</td><td><div></div></td></tr><tr><td style="font-weight:bold;vertical-align:top;">reset_password_key</td><td style="vertical-align:top;">:</td><td><div></div></td></tr><tr><td style="font-weight:bold;vertical-align:top;">username</td><td style="vertical-align:top;">:</td><td><div>t2-ghas8302</div></td></tr></table></div></td></tr><tr><td style="font-weight:bold;vertical-align:top;">user_groups</td><td style="vertical-align:top;">:</td><td><div><table></table></div></td></tr></table></div></td></tr><tr><td style="font-weight:bold;vertical-align:top;">flash</td><td style="vertical-align:top;">:</td><td><div>None</div></td></tr><tr><td style="font-weight:bold;vertical-align:top;">this_manager</td><td style="vertical-align:top;">:</td><td><div>False</div></td></tr></table></div>'
tRp146
sS'etype'
p147
S"<type 'exceptions.AttributeError'>"
p148
sS'date'
p149
S'Tue Feb 22 14:53:00 2022'
p150
sS'response'
p151
g59
(S's\xa99\x00\x00<div><table><tr><td style="font-weight:bold;vertical-align:top;">body</td><td style="vertical-align:top;">:</td><td><div>&lt;cStringIO.StringO object at 0x0000000002CFA340&gt;</div></td></tr><tr><td style="font-weight:bold;vertical-align:top;">cookies</td><td style="vertical-align:top;">:</td><td><div><table><tr><td style="font-weight:bold;vertical-align:top;">session_id_init</td><td style="vertical-align:top;">:</td><td><div>10.252.111.164-4432a88d-fe89-4f65-8497-42eb16dfa362<table><tr><td style="font-weight:bold;vertical-align:top;">comment</td><td style="vertical-align:top;">:</td><td><div></div></td></tr><tr><td style="font-weight:bold;vertical-align:top;">domain</td><td style="vertical-align:top;">:</td><td><div></div></td></tr><tr><td style="font-weight:bold;vertical-align:top;">expires</td><td style="vertical-align:top;">:</td><td><div></div></td></tr><tr><td style="font-weight:bold;vertical-align:top;">httponly</td><td style="vertical-align:top;">:</td><td><div></div></td></tr><tr><td style="font-weight:bold;vertical-align:top;">max-age</td><td style="vertical-align:top;">:</td><td><div></div></td></tr><tr><td style="font-weight:bold;vertical-align:top;">path</td><td style="vertical-align:top;">:</td><td><div>/</div></td></tr><tr><td style="font-weight:bold;vertical-align:top;">secure</td><td style="vertical-align:top;">:</td><td><div></div></td></tr><tr><td style="font-weight:bold;vertical-align:top;">version</td><td style="vertical-align:top;">:</td><td><div></div></td></tr></table></div></td></tr></table></div></td></tr><tr><td style="font-weight:bold;vertical-align:top;">delimiters</td><td style="vertical-align:top;">:</td><td><div><table><tr><td><div>{{</div></td></tr><tr><td><div>}}</div></td></tr></table></div></td></tr><tr><td style="font-weight:bold;vertical-align:top;">files</td><td style="vertical-align:top;">:</td><td><div><table></table></div></td></tr><tr><td style="font-weight:bold;vertical-align:top;">flash</td><td style="vertical-align:top;">:</td><td><div></div></td></tr><tr><td style="font-weight:bold;vertical-align:top;">form_label_separator</td><td style="vertical-align:top;">:</td><td><div></div></td></tr><tr><td style="font-weight:bold;vertical-align:top;">formstyle</td><td style="vertical-align:top;">:</td><td><div>bootstrap3_inline</div></td></tr><tr><td style="font-weight:bold;vertical-align:top;">generic_patterns</td><td style="vertical-align:top;">:</td><td><div><table></table></div></td></tr><tr><td style="font-weight:bold;vertical-align:top;">google_analytics_id</td><td style="vertical-align:top;">:</td><td><div>None</div></td></tr><tr><td style="font-weight:bold;vertical-align:top;">headers</td><td style="vertical-align:top;">:</td><td><div><table><tr><td style="font-weight:bold;vertical-align:top;">X-Powered-By</td><td style="vertical-align:top;">:</td><td><div>web2py</div></td></tr></table></div></td></tr><tr><td style="font-weight:bold;vertical-align:top;">logo</td><td style="vertical-align:top;">:</td><td><div><a class="navbar-brand" href="https://unificace.cemtl.rtss.qc.ca" id="web2py-logo"><b>Unificace</b></a></div></td></tr><tr><td style="font-weight:bold;vertical-align:top;">menu</td><td style="vertical-align:top;">:</td><td><div><table><tr><td><div><table><tr><td><div>Menu</div></td></tr><tr><td><div>False</div></td></tr><tr><td><div>#</div></td></tr><tr><td><div><table><tr><td><div><table><tr><td><div>Accueil</div></td></tr><tr><td><div>False</div></td></tr><tr><td><div>/init/default/index</div></td></tr><tr><td><div>[]</div></td></tr></table></div></td></tr><tr><td><div><table><tr><td><div>Actualisation des inventaires</div></td></tr><tr><td><div>False</div></td></tr><tr><td><div>/init/actualisation_inventaires/index</div></td></tr><tr><td><div>[]</div></td></tr></table></div></td></tr><tr><td><div><table><tr><td><div>Gestion des absences</div></td></tr><tr><td><div>False</div></td></tr><tr><td><div>/init/gestion_absence/absences_menu</div></td></tr><tr><td><div>[]</div></td></tr></table></div></td></tr><tr><td><div><table><tr><td><div>Gestion des ADs</div></td></tr><tr><td><div>False</div></td></tr><tr><td><div>/init/gestion_ads/index</div></td></tr><tr><td><div>[]</div></td></tr></table></div></td></tr><tr><td><div><table><tr><td><div>Gestion des inventaires</div></td></tr><tr><td><div>False</div></td></tr><tr><td><div>/init/gestion_inventaires/index</div></td></tr><tr><td><div>[]</div></td></tr></table></div></td></tr><tr><td><div><table><tr><td><div>Gestion des \xc3\xa9crans d\'affichage</div></td></tr><tr><td><div>False</div></td></tr><tr><td><div>/init/gestion_affichage/index</div></td></tr><tr><td><div>[]</div></td></tr></table></div></td></tr><tr><td><div><table><tr><td><div>Gestion de capacit\xc3\xa9 RH (projet)</div></td></tr><tr><td><div>False</div></td></tr><tr><td><div>/init/gestion_ressources/index</div></td></tr><tr><td><div>[]</div></td></tr></table></div></td></tr><tr><td><div><table><tr><td><div>Gestion des acc\xc3\xa8s g\xc3\xa9n\xc3\xa9rique</div></td></tr><tr><td><div>False</div></td></tr><tr><td><div>/init/gestion_acces_generique/index</div></td></tr><tr><td><div>[]</div></td></tr></table></div></td></tr><tr><td><div><table><tr><td><div>Calendrier des changements</div></td></tr><tr><td><div>False</div></td></tr><tr><td><div>/init/gestion_temps/index</div></td></tr><tr><td><div>[]</div></td></tr></table></div></td></tr><tr><td><div><table><tr><td><div>Gestion des courriels</div></td></tr><tr><td><div>False</div></td></tr><tr><td><div>/init/gestion_courriels/index</div></td></tr><tr><td><div>[]</div></td></tr></table></div></td></tr><tr><td><div><table><tr><td><div>Gestion de fichiers</div></td></tr><tr><td><div>False</div></td></tr><tr><td><div>/init/gestion_fichiers/index</div></td></tr><tr><td><div>[]</div></td></tr></table></div></td></tr><tr><td><div><table><tr><td><div>Gestion des factures (Telus)</div></td></tr><tr><td><div>False</div></td></tr><tr><td><div>/init/gestion_factures/index</div></td></tr><tr><td><div>[]</div></td></tr></table></div></td></tr><tr><td><div><table><tr><td><div>Gestion des importations vers Octopus</div></td></tr><tr><td><div>False</div></td></tr><tr><td><div>/init/gestion_octopus/index</div></td></tr><tr><td><div>[]</div></td></tr></table></div></td></tr><tr><td><div><table><tr><td><div>Gestion d\'impression</div></td></tr><tr><td><div>False</div></td></tr><tr><td><div>/init/gestion_impression/index</div></td></tr><tr><td><div>[]</div></td></tr></table></div></td></tr><tr><td><div><table><tr><td><div>L\'inventaire des serveurs</div></td></tr><tr><td><div>False</div></td></tr><tr><td><div>/init/gestion_serveurs/index</div></td></tr><tr><td><div>[]</div></td></tr></table></div></td></tr><tr><td><div><table><tr><td><div>Gestion de mappage (utilisateur au lecteur r\xc3\xa9seau)</div></td></tr><tr><td><div>False</div></td></tr><tr><td><div>/init/mappage_reseau/index</div></td></tr><tr><td><div>[]</div></td></tr></table></div></td></tr><tr><td><div><table><tr><td><div>Gestion de mappage (imprimante au client l\xc3\xa9ger)</div></td></tr><tr><td><div>False</div></td></tr><tr><td><div>/init/gestion_imprimantes/index</div></td></tr><tr><td><div>[]</div></td></tr></table></div></td></tr><tr><td><div><table><tr><td><div>Gestion du proxy</div></td></tr><tr><td><div>False</div></td></tr><tr><td><div>/init/gestion_proxy/index</div></td></tr><tr><td><div>[]</div></td></tr></table></div></td></tr><tr><td><div><table><tr><td><div>Gestion des PVS</div></td></tr><tr><td><div>False</div></td></tr><tr><td><div>/init/gestion_pvs/index</div></td></tr><tr><td><div>[]</div></td></tr></table></div></td></tr><tr><td><div><table><tr><td><div>Gestion RDM &amp; RDP</div></td></tr><tr><td><div>False</div></td></tr><tr><td><div>/init/gestion_rdm_rdp/index</div></td></tr><tr><td><div>[]</div></td></tr></table></div></td></tr><tr><td><div><table><tr><td><div>Gestion des serveurs</div></td></tr><tr><td><div>False</div></td></tr><tr><td><div>/init/gestion_vms/index</div></td></tr><tr><td><div>[]</div></td></tr></table></div></td></tr><tr><td><div><table><tr><td><div>R\xc3\xa9trofacturation du compte bilan</div></td></tr><tr><td><div>False</div></td></tr><tr><td><div>/init/gestion_retrofacturation/index</div></td></tr><tr><td><div>[]</div></td></tr></table></div></td></tr><tr><td><div><table><tr><td><div>Calendrier financier</div></td></tr><tr><td><div>False</div></td></tr><tr><td><div>/init/gestion_finance/index</div></td></tr><tr><td><div>[]</div></td></tr></table></div></td></tr><tr><td><div><table><tr><td><div>Nomenclature pour des alias</div></td></tr><tr><td><div>False</div></td></tr><tr><td><div>/init/gestion_nomenclature/index</div></td></tr><tr><td><div>[]</div></td></tr></table></div></td></tr><tr><td><div><table><tr><td><div>Surveillance des alertes</div></td></tr><tr><td><div>False</div></td></tr><tr><td><div>/init/alerts_monitoring/index</div></td></tr><tr><td><div>[]</div></td></tr></table></div></td></tr><tr><td><div><table><tr><td><div>Base de donn\xc3\xa9es</div></td></tr><tr><td><div>False</div></td></tr><tr><td><div>/init/database/index</div></td></tr><tr><td><div>[]</div></td></tr></table></div></td></tr><tr><td><div><table><tr><td><div>Gestion des acc\xc3\xa8s</div></td></tr><tr><td><div>False</div></td></tr><tr><td><div>/init/gestion_acces/index</div></td></tr><tr><td><div>[]</div></td></tr></table></div></td></tr><tr><td><div><table><tr><td><div>\xc3\x80 propos</div></td></tr><tr><td><div>False</div></td></tr><tr><td><div>/init/about/index</div></td></tr><tr><td><div>[]</div></td></tr></table></div></td></tr></table></div></td></tr></table></div></td></tr><tr><td><div><table><tr><td><div>Gestion des absences</div></td></tr><tr><td><div>False</div></td></tr><tr><td><div>#</div></td></tr><tr><td><div><table><tr><td><div><table><tr><td><div>Calendrier</div></td></tr><tr><td><div>False</div></td></tr><tr><td><div>/init/gestion_absence/index</div></td></tr><tr><td><div>[]</div></td></tr></table></div></td></tr><tr><td><div><table><tr><td><div>Filtrage</div></td></tr><tr><td><div>False</div></td></tr><tr><td><div>/init/gestion_absence/search</div></td></tr><tr><td><div>[]</div></td></tr></table></div></td></tr><tr><td><div><table><tr><td><div>Tables de configuration</div></td></tr><tr><td><div>False</div></td></tr><tr><td><div>/init/gestion_absence/tables</div></td></tr><tr><td><div>[]</div></td></tr></table></div></td></tr></table></div></td></tr></table></div></td></tr><tr><td><div><table><tr><td><div>Calendrier</div></td></tr><tr><td><div>False</div></td></tr><tr><td><div>/init/gestion_absence/index</div></td></tr><tr><td><div><table></table></div></td></tr></table></div></td></tr></table></div></td></tr><tr><td style="font-weight:bold;vertical-align:top;">meta</td><td style="vertical-align:top;">:</td><td><div><table><tr><td style="font-weight:bold;vertical-align:top;">author</td><td style="vertical-align:top;">:</td><td><div>Vilounha Phanalasy &lt;vphanalasy@ssss.gouv.qc.ca&gt;</div></td></tr><tr><td style="font-weight:bold;vertical-align:top;">description</td><td style="vertical-align:top;">:</td><td><div>a cool new app</div></td></tr><tr><td style="font-weight:bold;vertical-align:top;">generator</td><td style="vertical-align:top;">:</td><td><div>Web2py Web Framework</div></td></tr><tr><td style="font-weight:bold;vertical-align:top;">keywords</td><td style="vertical-align:top;">:</td><td><div><table><tr><td><div>web2py</div></td></tr><tr><td><div>python</div></td></tr><tr><td><div>framework</div></td></tr></table></div></td></tr></table></div></td></tr><tr><td style="font-weight:bold;vertical-align:top;">models_to_run</td><td style="vertical-align:top;">:</td><td><div><table><tr><td><div>^\\w+\\.py$</div></td></tr><tr><td><div>^gestion_absence/\\w+\\.py$</div></td></tr><tr><td><div>^gestion_absence/index/\\w+\\.py$</div></td></tr></table></div></td></tr><tr><td style="font-weight:bold;vertical-align:top;">postprocessing</td><td style="vertical-align:top;">:</td><td><div><table></table></div></td></tr><tr><td style="font-weight:bold;vertical-align:top;">session_client</td><td style="vertical-align:top;">:</td><td><div>10.252.111.164</div></td></tr><tr><td style="font-weight:bold;vertical-align:top;">session_cookie_compression_level</td><td style="vertical-align:top;">:</td><td><div>None</div></td></tr><tr><td style="font-weight:bold;vertical-align:top;">session_cookie_expires</td><td style="vertical-align:top;">:</td><td><div>2592000</div></td></tr><tr><td style="font-weight:bold;vertical-align:top;">session_data_name</td><td style="vertical-align:top;">:</td><td><div>session_data_init</div></td></tr><tr><td style="font-weight:bold;vertical-align:top;">session_file</td><td style="vertical-align:top;">:</td><td><div>&lt;open file &#x27;C:\\\\Users\\\\unificace\\\\unificace\\\\web2py\\\\applications\\\\init\\\\sessions\\\\098\\\\0d5\\\\10.252.111.164-4432a88d-fe89-4f65-8497-42eb16dfa362&#x27;, mode &#x27;rb+&#x27; at 0x0000000002C0F150&gt;</div></td></tr><tr><td style="font-weight:bold;vertical-align:top;">session_filename</td><td style="vertical-align:top;">:</td><td><div>C:\\Users\\unificace\\unificace\\web2py\\applications\\init\\sessions\\10.252.111.164-4432a88d-fe89-4f65-8497-42eb16dfa362</div></td></tr><tr><td style="font-weight:bold;vertical-align:top;">session_hash</td><td style="vertical-align:top;">:</td><td><div>e2f8f0ebd31a8d781780ddd5ef1527bc</div></td></tr><tr><td style="font-weight:bold;vertical-align:top;">session_id</td><td style="vertical-align:top;">:</td><td><div>10.252.111.164-4432a88d-fe89-4f65-8497-42eb16dfa362</div></td></tr><tr><td style="font-weight:bold;vertical-align:top;">session_id_name</td><td style="vertical-align:top;">:</td><td><div>session_id_init</div></td></tr><tr><td style="font-weight:bold;vertical-align:top;">session_locked</td><td style="vertical-align:top;">:</td><td><div>True</div></td></tr><tr><td style="font-weight:bold;vertical-align:top;">session_masterapp</td><td style="vertical-align:top;">:</td><td><div>init</div></td></tr><tr><td style="font-weight:bold;vertical-align:top;">session_new</td><td style="vertical-align:top;">:</td><td><div>False</div></td></tr><tr><td style="font-weight:bold;vertical-align:top;">session_storage_type</td><td style="vertical-align:top;">:</td><td><div>file</div></td></tr><tr><td style="font-weight:bold;vertical-align:top;">status</td><td style="vertical-align:top;">:</td><td><div>200</div></td></tr><tr><td style="font-weight:bold;vertical-align:top;">subtitle</td><td style="vertical-align:top;">:</td><td><div></div></td></tr><tr><td style="font-weight:bold;vertical-align:top;">title</td><td style="vertical-align:top;">:</td><td><div>Init</div></td></tr><tr><td style="font-weight:bold;vertical-align:top;">view</td><td style="vertical-align:top;">:</td><td><div>gestion_absence/index.html</div></td></tr></table></div>'
tRp152
sS'locals'
p153
(dp154
S'load'
p155
S'False'
p156
sS'value_date'
p157
S"'2022-02-02'"
p158
sS'value_edit_time'
p159
S"''"
p160
sS'this_id'
p161
S'0'
sS'type_items'
p162
S"[(6L, 'ABS - VACANCE (VERT)'), (7L, 'ABS - F\\xc3\\x89RIE (BLUE)'), (8L, 'ABS - MALADIE (JAUNE CLAIR )'), (9L, 'ABS - AUTRES (JAUNE)'), (10L, 'ABS -  FORMATION (BLEU CLAIR )'), (11L, 'ABS - T\\xc3\\x89L\\xc3\\x89-TRAVAIL (BLEU CLAIR )'), (12L, 'ABS - CONG\\xc3\\x89 MOBILE PSYCHIATRIQUE')]"
p163
sS'value_minute_end'
p164
S"'0'"
p165
sS'tbl_type'
p166
S'<Rows (7)>'
p167
sS'resource_view_checked'
p168
g156
sS'value_title'
p169
S"'SALIM DRAAOUI'"
p170
sS'end'
p171
S'datetime.datetime(2022, 2, 2, 15, 0)'
p172
sS'tm_id'
p173
S'0'
sS'tbl_object'
p174
S'<Rows (1)>'
p175
sS'rs'
p176
S'<Rows (0)>'
p177
sS'object_list'
p178
S'(4L,)'
p179
sS'tbl_resources'
p180
S'<Rows (20)>'
p181
sS'value_description'
p182
S"''"
p183
sS'value_hour_end'
p184
S"'15'"
p185
sS'object_group_ids'
p186
S"{'AAESI ABSENCE': 3, 'INFRA ABSENCE': 1, 'ITSM ABSENCE': 4, 'OPERA ABSENCE': 2, 'WIN10 ABSENCE': 5}"
p187
sS'r'
S'<Row {\'title\': \'SALIM DRAAOUI\', \'start_time\': No..."reservation"."resources" = 1263)>, \'id\': 1263L}>'
p188
sS'time'
p189
S"'2022-02-02'"
p190
sS'value_resource'
p191
S'1263L'
p192
sS'this_record'
p193
S'0'
sS'color_items'
p194
S"{6L: '#00ffcc', 7L: '#66ccff', 8L: '#ffffcc', 9L: '#ffff99', 10L: '#e6f7ff', 11L: '#e6f7f0', 12L: '#99ccff'}"
p195
sS'resources_items'
p196
S"[('SELECTIONNER UN RESSOURCE', -2), ('TOUS', -1), ('ANDRE DEMERS', 1167L), ('ANDRE FERLAND', 1282L), ('BAHI KESSI', 1319L), ('BRIAN AGUILAR', 1323L), ('FRANCOIS PLANTE', 1336L), ('GUILLAUME DICAIRE', 1071L), ('JEAN-FRANCOIS DUPONT', 1098L), ('JOSE CORDEIRO', 1152L), ('KHALID BELLAFROUH', 54L), ('LUCAS CORTEZ', 1305L), ('LYNE CHARBONNEAU', 1085L), ('MATHIADO JOSEPH', 1243L), ('MOHAMED KHEMIRI', 1330L), ('PATRICK LEONARD', 1061L), ('PIERRE TARDIF', 1058L), ('RICHARD DESORMIERS', 32L), ('SALIM DRAAOUI', 1263L), ('SOFIANE BENMEDJANE', 1245L), ...]"
p197
sS'begin'
p198
S'datetime.datetime(2022, 2, 2, 9, 0)'
p199
sS'qdb'
p200
S'<Table reservation (id, rs_object, resources, rs...me_end, absence, replace_id, edit_by, edit_time)>'
p201
sS'form'
p202
S'<gluon.html.FORM object>'
p203
sS'value_hour_begin'
p204
S"'9'"
p205
sS'has_acces'
p206
S'True'
p207
sS'value_minute_begin'
p208
S"'0'"
p209
sS'msg'
p210
S"''"
p211
sg149
S'datetime.datetime(2022, 2, 2, 0, 0)'
p212
sS'this_object_group'
p213
S"'INFRA ABSENCE'"
p214
sS'value_replace_id'
p215
S"''"
p216
sS'value_user'
p217
S"''"
p218
sS'value_object'
p219
S"'4'"
p220
sS'i'
S'<Row {\'title\': \'ABS - CONG\\xc3\\x89 MOBILE PSYCHI..."rs_type" = 12)>, \'id\': 12L, \'color\': \'#99ccff\'}>'
p221
sS'k'
S'2'
sS'script'
p222
S'<gluon.html.SCRIPT object>'
p223
sS'resources_ids'
p224
S'\'SELECT "resource_group"."resources_id" FROM "resource_group" WHERE ("resource_group"."team_id" = 1);\''
p225
sS's'
S"''"
p226
sS'value_rs_type'
p227
S"'6'"
p228
sS'v'
S"'avec enregistements annul\\xc3\\xa9s'"
p229
sS'object_items'
p230
S"[('INFRA ABSENCE', 4L)]"
p231
sS'have_new_record'
p232
g156
sS'all_view_checked'
p233
g156
sS'view'
p234
S"{0: 'mois', 2: 'avec enregistements annul\\xc3\\xa9s'}"
p235
sssS'traceback'
p236
S'Traceback (most recent call last):\n  File ".\\gluon\\restricted.py", line 219, in restricted\n    exec(ccode, environment)\n  File "C:\\Users\\unificace\\unificace\\web2py\\applications\\init\\controllers/gestion_absence.py", line 930, in <module>\n  File ".\\gluon\\globals.py", line 419, in <lambda>\n    self._caller = lambda f: f()\n  File "C:\\Users\\unificace\\unificace\\web2py\\applications\\init\\controllers/gestion_absence.py", line 250, in index\n    value_hour_begin=r.start_time.hour\nAttributeError: \'NoneType\' object has no attribute \'hour\'\n'
p237
s.