(dp1
S'output'
p2
S"<type 'exceptions.WindowsError'> [Error 2] Le fichier sp\xe9cifi\xe9 est introuvable"
p3
sS'layer'
p4
S'C:\\Users\\T2-PEGE8301.06CEMTL\\Desktop\\environmentTestClonedFromGitHub\\unificaceAdmin\\web2py\\applications\\init\\controllers/gestion_retrofacturation.py'
p5
sS'code'
p6
S'<code object <module> at 000000000C4F12B0, file "C:\\Users\\T2-PEGE8301.06CEMTL\\Desktop\\environmentTestClonedFromGitHub\\unificaceAdmin\\web2py\\applications\\init\\controllers/gestion_retrofacturation.py", line 16>'
p7
sS'snapshot'
p8
(dp9
S'exception'
p10
(dp11
S'__getslice__'
p12
S"<method-wrapper '__getslice__' of exceptions.WindowsError object>"
p13
sS'__str__'
p14
S"<method-wrapper '__str__' of exceptions.WindowsError object>"
p15
sS'__reduce__'
p16
S'<built-in method __reduce__ of exceptions.WindowsError object>'
p17
sS'__dict__'
p18
S'{}'
p19
sS'__sizeof__'
p20
S'<built-in method __sizeof__ of exceptions.WindowsError object>'
p21
sS'message'
p22
S"''"
p23
sS'__init__'
p24
S"<method-wrapper '__init__' of exceptions.WindowsError object>"
p25
sS'__setattr__'
p26
S"<method-wrapper '__setattr__' of exceptions.WindowsError object>"
p27
sS'__reduce_ex__'
p28
S'<built-in method __reduce_ex__ of exceptions.WindowsError object>'
p29
sS'__new__'
p30
S'<built-in method __new__ of type object>'
p31
sS'errno'
p32
S'2'
sS'__format__'
p33
S'<built-in method __format__ of exceptions.WindowsError object>'
p34
sS'__class__'
p35
S"<type 'exceptions.WindowsError'>"
p36
sS'filename'
p37
S'None'
p38
sS'__doc__'
p39
S"'MS-Windows OS system call failed.'"
p40
sS'__getitem__'
p41
S"<method-wrapper '__getitem__' of exceptions.WindowsError object>"
p42
sS'__setstate__'
p43
S'<built-in method __setstate__ of exceptions.WindowsError object>'
p44
sS'__getattribute__'
p45
S"<method-wrapper '__getattribute__' of exceptions.WindowsError object>"
p46
sS'args'
p47
S"(2, 'Le fichier sp\\xe9cifi\\xe9 est introuvable')"
p48
sS'__subclasshook__'
p49
S'<built-in method __subclasshook__ of type object>'
p50
sS'__unicode__'
p51
S'<built-in method __unicode__ of exceptions.WindowsError object>'
p52
sS'winerror'
p53
S'2'
sS'strerror'
p54
S"'Le fichier sp\\xe9cifi\\xe9 est introuvable'"
p55
sS'__delattr__'
p56
S"<method-wrapper '__delattr__' of exceptions.WindowsError object>"
p57
sS'__repr__'
p58
S"<method-wrapper '__repr__' of exceptions.WindowsError object>"
p59
sS'__hash__'
p60
S"<method-wrapper '__hash__' of exceptions.WindowsError object>"
p61
ssS'evalue'
p62
S'[Error 2] Le fichier sp\xe9cifi\xe9 est introuvable'
p63
sS'request'
p64
cgluon.html
XML_unpickle
p65
(S's\x1f^\x00\x00<div><table><tr><td style="font-weight:bold;vertical-align:top;">ajax</td><td style="vertical-align:top;">:</td><td><div>False</div></td></tr><tr><td style="font-weight:bold;vertical-align:top;">application</td><td style="vertical-align:top;">:</td><td><div>init</div></td></tr><tr><td style="font-weight:bold;vertical-align:top;">args</td><td style="vertical-align:top;">:</td><td><div><table></table></div></td></tr><tr><td style="font-weight:bold;vertical-align:top;">cid</td><td style="vertical-align:top;">:</td><td><div>None</div></td></tr><tr><td style="font-weight:bold;vertical-align:top;">client</td><td style="vertical-align:top;">:</td><td><div>127.0.0.1</div></td></tr><tr><td style="font-weight:bold;vertical-align:top;">controller</td><td style="vertical-align:top;">:</td><td><div>gestion_retrofacturation</div></td></tr><tr><td style="font-weight:bold;vertical-align:top;">cookies</td><td style="vertical-align:top;">:</td><td><div><table><tr><td style="font-weight:bold;vertical-align:top;">session_id_init</td><td style="vertical-align:top;">:</td><td><div>127.0.0.1-5ccd5a59-23f2-4568-bc07-06799bf0b5c7<table><tr><td style="font-weight:bold;vertical-align:top;">comment</td><td style="vertical-align:top;">:</td><td><div></div></td></tr><tr><td style="font-weight:bold;vertical-align:top;">domain</td><td style="vertical-align:top;">:</td><td><div></div></td></tr><tr><td style="font-weight:bold;vertical-align:top;">expires</td><td style="vertical-align:top;">:</td><td><div></div></td></tr><tr><td style="font-weight:bold;vertical-align:top;">httponly</td><td style="vertical-align:top;">:</td><td><div></div></td></tr><tr><td style="font-weight:bold;vertical-align:top;">max-age</td><td style="vertical-align:top;">:</td><td><div></div></td></tr><tr><td style="font-weight:bold;vertical-align:top;">path</td><td style="vertical-align:top;">:</td><td><div></div></td></tr><tr><td style="font-weight:bold;vertical-align:top;">secure</td><td style="vertical-align:top;">:</td><td><div></div></td></tr><tr><td style="font-weight:bold;vertical-align:top;">version</td><td style="vertical-align:top;">:</td><td><div></div></td></tr></table></div></td></tr></table></div></td></tr><tr><td style="font-weight:bold;vertical-align:top;">env</td><td style="vertical-align:top;">:</td><td><div><table><tr><td style="font-weight:bold;vertical-align:top;">HTTP_ACCEPT</td><td style="vertical-align:top;">:</td><td><div>text/html,application/xhtml+xml,application/xml;q=0.9,image/avif,image/webp,image/apng,*/*;q=0.8,application/signed-exchange;v=b3;q=0.7</div></td></tr><tr><td style="font-weight:bold;vertical-align:top;">HTTP_ACCEPT_ENCODING</td><td style="vertical-align:top;">:</td><td><div>gzip, deflate, br</div></td></tr><tr><td style="font-weight:bold;vertical-align:top;">HTTP_ACCEPT_LANGUAGE</td><td style="vertical-align:top;">:</td><td><div>fr-FR,fr;q=0.9,en-US;q=0.8,en;q=0.7</div></td></tr><tr><td style="font-weight:bold;vertical-align:top;">HTTP_CONNECTION</td><td style="vertical-align:top;">:</td><td><div>keep-alive</div></td></tr><tr><td style="font-weight:bold;vertical-align:top;">HTTP_COOKIE</td><td style="vertical-align:top;">:</td><td><div>session_id_init=127.0.0.1-5ccd5a59-23f2-4568-bc07-06799bf0b5c7</div></td></tr><tr><td style="font-weight:bold;vertical-align:top;">HTTP_HOST</td><td style="vertical-align:top;">:</td><td><div>127.0.0.1:8000</div></td></tr><tr><td style="font-weight:bold;vertical-align:top;">HTTP_REFERER</td><td style="vertical-align:top;">:</td><td><div>http://127.0.0.1:8000/init/gestion_retrofacturation/index</div></td></tr><tr><td style="font-weight:bold;vertical-align:top;">HTTP_SEC_CH_UA</td><td style="vertical-align:top;">:</td><td><div>&quot;Not_A Brand&quot;;v=&quot;8&quot;, &quot;Chromium&quot;;v=&quot;120&quot;, &quot;Google Chrome&quot;;v=&quot;120&quot;</div></td></tr><tr><td style="font-weight:bold;vertical-align:top;">HTTP_SEC_CH_UA_MOBILE</td><td style="vertical-align:top;">:</td><td><div>?0</div></td></tr><tr><td style="font-weight:bold;vertical-align:top;">HTTP_SEC_CH_UA_PLATFORM</td><td style="vertical-align:top;">:</td><td><div>&quot;Windows&quot;</div></td></tr><tr><td style="font-weight:bold;vertical-align:top;">HTTP_SEC_FETCH_DEST</td><td style="vertical-align:top;">:</td><td><div>document</div></td></tr><tr><td style="font-weight:bold;vertical-align:top;">HTTP_SEC_FETCH_MODE</td><td style="vertical-align:top;">:</td><td><div>navigate</div></td></tr><tr><td style="font-weight:bold;vertical-align:top;">HTTP_SEC_FETCH_SITE</td><td style="vertical-align:top;">:</td><td><div>same-origin</div></td></tr><tr><td style="font-weight:bold;vertical-align:top;">HTTP_SEC_FETCH_USER</td><td style="vertical-align:top;">:</td><td><div>?1</div></td></tr><tr><td style="font-weight:bold;vertical-align:top;">HTTP_UPGRADE_INSECURE_REQUESTS</td><td style="vertical-align:top;">:</td><td><div>1</div></td></tr><tr><td style="font-weight:bold;vertical-align:top;">HTTP_USER_AGENT</td><td style="vertical-align:top;">:</td><td><div>Mozilla/5.0 (Windows NT 10.0; Win64; x64) AppleWebKit/537.36 (KHTML, like Gecko) Chrome/120.0.0.0 Safari/537.36</div></td></tr><tr><td style="font-weight:bold;vertical-align:top;">PATH_INFO</td><td style="vertical-align:top;">:</td><td><div>/init/gestion_retrofacturation/importation</div></td></tr><tr><td style="font-weight:bold;vertical-align:top;">QUERY_STRING</td><td style="vertical-align:top;">:</td><td><div></div></td></tr><tr><td style="font-weight:bold;vertical-align:top;">REMOTE_ADDR</td><td style="vertical-align:top;">:</td><td><div>127.0.0.1</div></td></tr><tr><td style="font-weight:bold;vertical-align:top;">REMOTE_PORT</td><td style="vertical-align:top;">:</td><td><div>60582</div></td></tr><tr><td style="font-weight:bold;vertical-align:top;">REQUEST_METHOD</td><td style="vertical-align:top;">:</td><td><div>GET</div></td></tr><tr><td style="font-weight:bold;vertical-align:top;">SCRIPT_NAME</td><td style="vertical-align:top;">:</td><td><div></div></td></tr><tr><td style="font-weight:bold;vertical-align:top;">SERVER_NAME</td><td style="vertical-align:top;">:</td><td><div>COP01303</div></td></tr><tr><td style="font-weight:bold;vertical-align:top;">SERVER_PORT</td><td style="vertical-align:top;">:</td><td><div>8000</div></td></tr><tr><td style="font-weight:bold;vertical-align:top;">SERVER_PROTOCOL</td><td style="vertical-align:top;">:</td><td><div>HTTP/1.1</div></td></tr><tr><td style="font-weight:bold;vertical-align:top;">SERVER_SOFTWARE</td><td style="vertical-align:top;">:</td><td><div>Rocket 1.2.6</div></td></tr><tr><td style="font-weight:bold;vertical-align:top;">app_folders</td><td style="vertical-align:top;">:</td><td><div>set([&#x27;C:\\\\Users\\\\T2-PEGE8301.06CEMTL\\\\Desktop\\\\environmentTestClonedFromGitHub\\\\unificaceAdmin\\\\web2py\\\\applications\\\\init\\\\&#x27;])</div></td></tr><tr><td style="font-weight:bold;vertical-align:top;">applications_parent</td><td style="vertical-align:top;">:</td><td><div>C:\\Users\\T2-PEGE8301.06CEMTL\\Desktop\\environmentTestClonedFromGitHub\\unificaceAdmin\\web2py</div></td></tr><tr><td style="font-weight:bold;vertical-align:top;">cmd_args</td><td style="vertical-align:top;">:</td><td><div><table></table></div></td></tr><tr><td style="font-weight:bold;vertical-align:top;">cmd_options</td><td style="vertical-align:top;">:</td><td><div>&lt;Values at 0x41312c8: {&#x27;verbose&#x27;: False, &#x27;ip&#x27;: &#x27;127.0.0.1&#x27;, &#x27;debuglevel&#x27;: 30, &#x27;with_scheduler&#x27;: False, &#x27;shutdown_timeout&#x27;: 5, &#x27;taskbar&#x27;: False, &#x27;with_coverage&#x27;: False, &#x27;pid_filename&#x27;: &#x27;httpserver.pid&#x27;, &#x27;maxthreads&#x27;: None, &#x27;softcron&#x27;: False, &#x27;server_name&#x27;: &#x27;COP01303&#x27;, &#x27;bpython&#x27;: False, &#x27;nogui&#x27;: False, &#x27;port&#x27;: 8000, &#x27;print_errors&#x27;: False, &#x27;extcron&#x27;: False, &#x27;runcron&#x27;: False, &#x27;run_system_tests&#x27;: False, &#x27;test&#x27;: None, &#x27;folder&#x27;: &#x27;C:\\\\Users\\\\T2-PEGE8301.06CEMTL\\\\Desktop\\\\environmentTestClonedFromGitHub\\\\unificaceAdmin\\\\web2py&#x27;, &#x27;config&#x27;: &#x27;&#x27;, &#x27;minthreads&#x27;: None, &#x27;shell&#x27;: None, &#x27;run&#x27;: &#x27;&#x27;, &#x27;log_filename&#x27;: &#x27;httpserver.log&#x27;, &#x27;profiler_dir&#x27;: None, &#x27;args&#x27;: [&#x27;&#x27;], &#x27;socket_timeout&#x27;: 5, &#x27;ssl_ca_certificate&#x27;: None, &#x27;scheduler&#x27;: None, &#x27;interfaces&#x27;: None, &#x27;ssl_private_key&#x27;: &#x27;&#x27;, &#x27;gae&#x27;: None, &#x27;password&#x27;: &#x27;******&#x27;, &#x27;request_queue_size&#x27;: 5, &#x27;ssl_certificate&#x27;: &#x27;&#x27;, &#x27;cronjob&#x27;: False, &#x27;numthreads&#x27;: None, &#x27;quiet&#x27;: False, &#x27;import_models&#x27;: False, &#x27;timeout&#x27;: 10, &#x27;plain&#x27;: False, &#x27;nobanner&#x27;: False}&gt;</div></td></tr><tr><td style="font-weight:bold;vertical-align:top;">db_sessions</td><td style="vertical-align:top;">:</td><td><div>set([])</div></td></tr><tr><td style="font-weight:bold;vertical-align:top;">debugging</td><td style="vertical-align:top;">:</td><td><div>False</div></td></tr><tr><td style="font-weight:bold;vertical-align:top;">gluon_parent</td><td style="vertical-align:top;">:</td><td><div>C:\\Users\\T2-PEGE8301.06CEMTL\\Desktop\\environmentTestClonedFromGitHub\\unificaceAdmin\\web2py</div></td></tr><tr><td style="font-weight:bold;vertical-align:top;">http_accept</td><td style="vertical-align:top;">:</td><td><div>text/html,application/xhtml+xml,application/xml;q=0.9,image/avif,image/webp,image/apng,*/*;q=0.8,application/signed-exchange;v=b3;q=0.7</div></td></tr><tr><td style="font-weight:bold;vertical-align:top;">http_accept_encoding</td><td style="vertical-align:top;">:</td><td><div>gzip, deflate, br</div></td></tr><tr><td style="font-weight:bold;vertical-align:top;">http_accept_language</td><td style="vertical-align:top;">:</td><td><div>fr-FR,fr;q=0.9,en-US;q=0.8,en;q=0.7</div></td></tr><tr><td style="font-weight:bold;vertical-align:top;">http_connection</td><td style="vertical-align:top;">:</td><td><div>keep-alive</div></td></tr><tr><td style="font-weight:bold;vertical-align:top;">http_cookie</td><td style="vertical-align:top;">:</td><td><div>session_id_init=127.0.0.1-5ccd5a59-23f2-4568-bc07-06799bf0b5c7</div></td></tr><tr><td style="font-weight:bold;vertical-align:top;">http_host</td><td style="vertical-align:top;">:</td><td><div>127.0.0.1:8000</div></td></tr><tr><td style="font-weight:bold;vertical-align:top;">http_referer</td><td style="vertical-align:top;">:</td><td><div>http://127.0.0.1:8000/init/gestion_retrofacturation/index</div></td></tr><tr><td style="font-weight:bold;vertical-align:top;">http_sec_ch_ua</td><td style="vertical-align:top;">:</td><td><div>&quot;Not_A Brand&quot;;v=&quot;8&quot;, &quot;Chromium&quot;;v=&quot;120&quot;, &quot;Google Chrome&quot;;v=&quot;120&quot;</div></td></tr><tr><td style="font-weight:bold;vertical-align:top;">http_sec_ch_ua_mobile</td><td style="vertical-align:top;">:</td><td><div>?0</div></td></tr><tr><td style="font-weight:bold;vertical-align:top;">http_sec_ch_ua_platform</td><td style="vertical-align:top;">:</td><td><div>&quot;Windows&quot;</div></td></tr><tr><td style="font-weight:bold;vertical-align:top;">http_sec_fetch_dest</td><td style="vertical-align:top;">:</td><td><div>document</div></td></tr><tr><td style="font-weight:bold;vertical-align:top;">http_sec_fetch_mode</td><td style="vertical-align:top;">:</td><td><div>navigate</div></td></tr><tr><td style="font-weight:bold;vertical-align:top;">http_sec_fetch_site</td><td style="vertical-align:top;">:</td><td><div>same-origin</div></td></tr><tr><td style="font-weight:bold;vertical-align:top;">http_sec_fetch_user</td><td style="vertical-align:top;">:</td><td><div>?1</div></td></tr><tr><td style="font-weight:bold;vertical-align:top;">http_upgrade_insecure_requests</td><td style="vertical-align:top;">:</td><td><div>1</div></td></tr><tr><td style="font-weight:bold;vertical-align:top;">http_user_agent</td><td style="vertical-align:top;">:</td><td><div>Mozilla/5.0 (Windows NT 10.0; Win64; x64) AppleWebKit/537.36 (KHTML, like Gecko) Chrome/120.0.0.0 Safari/537.36</div></td></tr><tr><td style="font-weight:bold;vertical-align:top;">is_jython</td><td style="vertical-align:top;">:</td><td><div>False</div></td></tr><tr><td style="font-weight:bold;vertical-align:top;">is_py2</td><td style="vertical-align:top;">:</td><td><div>True</div></td></tr><tr><td style="font-weight:bold;vertical-align:top;">is_pypy</td><td style="vertical-align:top;">:</td><td><div>False</div></td></tr><tr><td style="font-weight:bold;vertical-align:top;">is_source</td><td style="vertical-align:top;">:</td><td><div>True</div></td></tr><tr><td style="font-weight:bold;vertical-align:top;">local_hosts</td><td style="vertical-align:top;">:</td><td><div><table><tr><td><div>::ffff:127.0.0.1</div></td></tr><tr><td><div>::1</div></td></tr><tr><td><div>COP01303</div></td></tr><tr><td><div>127.0.0.1</div></td></tr><tr><td><div>COP01303.cemtl.rtss.qc.ca</div></td></tr><tr><td><div>10.115.114.25</div></td></tr></table></div></td></tr><tr><td style="font-weight:bold;vertical-align:top;">path_info</td><td style="vertical-align:top;">:</td><td><div>/init/gestion_retrofacturation/importation</div></td></tr><tr><td style="font-weight:bold;vertical-align:top;">query_string</td><td style="vertical-align:top;">:</td><td><div></div></td></tr><tr><td style="font-weight:bold;vertical-align:top;">remote_addr</td><td style="vertical-align:top;">:</td><td><div>127.0.0.1</div></td></tr><tr><td style="font-weight:bold;vertical-align:top;">remote_port</td><td style="vertical-align:top;">:</td><td><div>60582</div></td></tr><tr><td style="font-weight:bold;vertical-align:top;">request_method</td><td style="vertical-align:top;">:</td><td><div>GET</div></td></tr><tr><td style="font-weight:bold;vertical-align:top;">request_uri</td><td style="vertical-align:top;">:</td><td><div>/init/gestion_retrofacturation/importation</div></td></tr><tr><td style="font-weight:bold;vertical-align:top;">script_name</td><td style="vertical-align:top;">:</td><td><div></div></td></tr><tr><td style="font-weight:bold;vertical-align:top;">server_name</td><td style="vertical-align:top;">:</td><td><div>COP01303</div></td></tr><tr><td style="font-weight:bold;vertical-align:top;">server_port</td><td style="vertical-align:top;">:</td><td><div>8000</div></td></tr><tr><td style="font-weight:bold;vertical-align:top;">server_protocol</td><td style="vertical-align:top;">:</td><td><div>HTTP/1.1</div></td></tr><tr><td style="font-weight:bold;vertical-align:top;">server_software</td><td style="vertical-align:top;">:</td><td><div>Rocket 1.2.6</div></td></tr><tr><td style="font-weight:bold;vertical-align:top;">web2py_path</td><td style="vertical-align:top;">:</td><td><div>C:\\Users\\T2-PEGE8301.06CEMTL\\Desktop\\environmentTestClonedFromGitHub\\unificaceAdmin\\web2py</div></td></tr><tr><td style="font-weight:bold;vertical-align:top;">web2py_version</td><td style="vertical-align:top;">:</td><td><div>2.16.1-stable+timestamp.2017.11.14.05.54.25</div></td></tr><tr><td style="font-weight:bold;vertical-align:top;">wsgi.errors</td><td style="vertical-align:top;">:</td><td><div>&lt;open file &#x27;&lt;stderr&gt;&#x27;, mode &#x27;w&#x27; at 0x0000000002A6B150&gt;</div></td></tr><tr><td style="font-weight:bold;vertical-align:top;">wsgi.file_wrapper</td><td style="vertical-align:top;">:</td><td><div>&lt;class wsgiref.util.FileWrapper at 0x00000000040D97C8&gt;</div></td></tr><tr><td style="font-weight:bold;vertical-align:top;">wsgi.input</td><td style="vertical-align:top;">:</td><td><div>&lt;socket._fileobject object at 0x00000000044141B0&gt;</div></td></tr><tr><td style="font-weight:bold;vertical-align:top;">wsgi.multiprocess</td><td style="vertical-align:top;">:</td><td><div>False</div></td></tr><tr><td style="font-weight:bold;vertical-align:top;">wsgi.multithread</td><td style="vertical-align:top;">:</td><td><div>True</div></td></tr><tr><td style="font-weight:bold;vertical-align:top;">wsgi.run_once</td><td style="vertical-align:top;">:</td><td><div>False</div></td></tr><tr><td style="font-weight:bold;vertical-align:top;">wsgi.url_scheme</td><td style="vertical-align:top;">:</td><td><div>http</div></td></tr><tr><td style="font-weight:bold;vertical-align:top;">wsgi.version</td><td style="vertical-align:top;">:</td><td><div><table><tr><td><div>1</div></td></tr><tr><td><div>0</div></td></tr></table></div></td></tr><tr><td style="font-weight:bold;vertical-align:top;">wsgi_errors</td><td style="vertical-align:top;">:</td><td><div>&lt;open file &#x27;&lt;stderr&gt;&#x27;, mode &#x27;w&#x27; at 0x0000000002A6B150&gt;</div></td></tr><tr><td style="font-weight:bold;vertical-align:top;">wsgi_file_wrapper</td><td style="vertical-align:top;">:</td><td><div>&lt;class wsgiref.util.FileWrapper at 0x00000000040D97C8&gt;</div></td></tr><tr><td style="font-weight:bold;vertical-align:top;">wsgi_input</td><td style="vertical-align:top;">:</td><td><div>&lt;socket._fileobject object at 0x00000000044141B0&gt;</div></td></tr><tr><td style="font-weight:bold;vertical-align:top;">wsgi_multiprocess</td><td style="vertical-align:top;">:</td><td><div>False</div></td></tr><tr><td style="font-weight:bold;vertical-align:top;">wsgi_multithread</td><td style="vertical-align:top;">:</td><td><div>True</div></td></tr><tr><td style="font-weight:bold;vertical-align:top;">wsgi_run_once</td><td style="vertical-align:top;">:</td><td><div>False</div></td></tr><tr><td style="font-weight:bold;vertical-align:top;">wsgi_url_scheme</td><td style="vertical-align:top;">:</td><td><div>http</div></td></tr><tr><td style="font-weight:bold;vertical-align:top;">wsgi_version</td><td style="vertical-align:top;">:</td><td><div><table><tr><td><div>1</div></td></tr><tr><td><div>0</div></td></tr></table></div></td></tr></table></div></td></tr><tr><td style="font-weight:bold;vertical-align:top;">extension</td><td style="vertical-align:top;">:</td><td><div>html</div></td></tr><tr><td style="font-weight:bold;vertical-align:top;">folder</td><td style="vertical-align:top;">:</td><td><div>C:\\Users\\T2-PEGE8301.06CEMTL\\Desktop\\environmentTestClonedFromGitHub\\unificaceAdmin\\web2py\\applications\\init\\</div></td></tr><tr><td style="font-weight:bold;vertical-align:top;">function</td><td style="vertical-align:top;">:</td><td><div>importation</div></td></tr><tr><td style="font-weight:bold;vertical-align:top;">global_settings</td><td style="vertical-align:top;">:</td><td><div><table><tr><td style="font-weight:bold;vertical-align:top;">app_folders</td><td style="vertical-align:top;">:</td><td><div>set([&#x27;C:\\\\Users\\\\T2-PEGE8301.06CEMTL\\\\Desktop\\\\environmentTestClonedFromGitHub\\\\unificaceAdmin\\\\web2py\\\\applications\\\\init\\\\&#x27;])</div></td></tr><tr><td style="font-weight:bold;vertical-align:top;">applications_parent</td><td style="vertical-align:top;">:</td><td><div>C:\\Users\\T2-PEGE8301.06CEMTL\\Desktop\\environmentTestClonedFromGitHub\\unificaceAdmin\\web2py</div></td></tr><tr><td style="font-weight:bold;vertical-align:top;">cmd_args</td><td style="vertical-align:top;">:</td><td><div><table></table></div></td></tr><tr><td style="font-weight:bold;vertical-align:top;">cmd_options</td><td style="vertical-align:top;">:</td><td><div>&lt;Values at 0x41312c8: {&#x27;verbose&#x27;: False, &#x27;ip&#x27;: &#x27;127.0.0.1&#x27;, &#x27;debuglevel&#x27;: 30, &#x27;with_scheduler&#x27;: False, &#x27;shutdown_timeout&#x27;: 5, &#x27;taskbar&#x27;: False, &#x27;with_coverage&#x27;: False, &#x27;pid_filename&#x27;: &#x27;httpserver.pid&#x27;, &#x27;maxthreads&#x27;: None, &#x27;softcron&#x27;: False, &#x27;server_name&#x27;: &#x27;COP01303&#x27;, &#x27;bpython&#x27;: False, &#x27;nogui&#x27;: False, &#x27;port&#x27;: 8000, &#x27;print_errors&#x27;: False, &#x27;extcron&#x27;: False, &#x27;runcron&#x27;: False, &#x27;run_system_tests&#x27;: False, &#x27;test&#x27;: None, &#x27;folder&#x27;: &#x27;C:\\\\Users\\\\T2-PEGE8301.06CEMTL\\\\Desktop\\\\environmentTestClonedFromGitHub\\\\unificaceAdmin\\\\web2py&#x27;, &#x27;config&#x27;: &#x27;&#x27;, &#x27;minthreads&#x27;: None, &#x27;shell&#x27;: None, &#x27;run&#x27;: &#x27;&#x27;, &#x27;log_filename&#x27;: &#x27;httpserver.log&#x27;, &#x27;profiler_dir&#x27;: None, &#x27;args&#x27;: [&#x27;&#x27;], &#x27;socket_timeout&#x27;: 5, &#x27;ssl_ca_certificate&#x27;: None, &#x27;scheduler&#x27;: None, &#x27;interfaces&#x27;: None, &#x27;ssl_private_key&#x27;: &#x27;&#x27;, &#x27;gae&#x27;: None, &#x27;password&#x27;: &#x27;******&#x27;, &#x27;request_queue_size&#x27;: 5, &#x27;ssl_certificate&#x27;: &#x27;&#x27;, &#x27;cronjob&#x27;: False, &#x27;numthreads&#x27;: None, &#x27;quiet&#x27;: False, &#x27;import_models&#x27;: False, &#x27;timeout&#x27;: 10, &#x27;plain&#x27;: False, &#x27;nobanner&#x27;: False}&gt;</div></td></tr><tr><td style="font-weight:bold;vertical-align:top;">db_sessions</td><td style="vertical-align:top;">:</td><td><div>set([])</div></td></tr><tr><td style="font-weight:bold;vertical-align:top;">debugging</td><td style="vertical-align:top;">:</td><td><div>False</div></td></tr><tr><td style="font-weight:bold;vertical-align:top;">gluon_parent</td><td style="vertical-align:top;">:</td><td><div>C:\\Users\\T2-PEGE8301.06CEMTL\\Desktop\\environmentTestClonedFromGitHub\\unificaceAdmin\\web2py</div></td></tr><tr><td style="font-weight:bold;vertical-align:top;">is_jython</td><td style="vertical-align:top;">:</td><td><div>False</div></td></tr><tr><td style="font-weight:bold;vertical-align:top;">is_py2</td><td style="vertical-align:top;">:</td><td><div>True</div></td></tr><tr><td style="font-weight:bold;vertical-align:top;">is_pypy</td><td style="vertical-align:top;">:</td><td><div>False</div></td></tr><tr><td style="font-weight:bold;vertical-align:top;">is_source</td><td style="vertical-align:top;">:</td><td><div>True</div></td></tr><tr><td style="font-weight:bold;vertical-align:top;">local_hosts</td><td style="vertical-align:top;">:</td><td><div><table><tr><td><div>::ffff:127.0.0.1</div></td></tr><tr><td><div>::1</div></td></tr><tr><td><div>COP01303</div></td></tr><tr><td><div>127.0.0.1</div></td></tr><tr><td><div>COP01303.cemtl.rtss.qc.ca</div></td></tr><tr><td><div>10.115.114.25</div></td></tr></table></div></td></tr><tr><td style="font-weight:bold;vertical-align:top;">web2py_version</td><td style="vertical-align:top;">:</td><td><div>2.16.1-stable+timestamp.2017.11.14.05.54.25</div></td></tr></table></div></td></tr><tr><td style="font-weight:bold;vertical-align:top;">is_https</td><td style="vertical-align:top;">:</td><td><div>False</div></td></tr><tr><td style="font-weight:bold;vertical-align:top;">is_local</td><td style="vertical-align:top;">:</td><td><div>True</div></td></tr><tr><td style="font-weight:bold;vertical-align:top;">is_restful</td><td style="vertical-align:top;">:</td><td><div>False</div></td></tr><tr><td style="font-weight:bold;vertical-align:top;">is_scheduler</td><td style="vertical-align:top;">:</td><td><div>False</div></td></tr><tr><td style="font-weight:bold;vertical-align:top;">is_shell</td><td style="vertical-align:top;">:</td><td><div>False</div></td></tr><tr><td style="font-weight:bold;vertical-align:top;">now</td><td style="vertical-align:top;">:</td><td><div>datetime.datetime(2024, 2, 1, 10, 28, 38, 404000)</div></td></tr><tr><td style="font-weight:bold;vertical-align:top;">raw_args</td><td style="vertical-align:top;">:</td><td><div></div></td></tr><tr><td style="font-weight:bold;vertical-align:top;">raw_extension</td><td style="vertical-align:top;">:</td><td><div>None</div></td></tr><tr><td style="font-weight:bold;vertical-align:top;">url</td><td style="vertical-align:top;">:</td><td><div>/init/gestion_retrofacturation/importation</div></td></tr><tr><td style="font-weight:bold;vertical-align:top;">utcnow</td><td style="vertical-align:top;">:</td><td><div>datetime.datetime(2024, 2, 1, 15, 28, 38, 404000)</div></td></tr><tr><td style="font-weight:bold;vertical-align:top;">wsgi</td><td style="vertical-align:top;">:</td><td><div>&lt;gluon.main.LazyWSGI object at 0x000000000C1FD400&gt;</div></td></tr></table></div>'
tRp66
sS'frames'
p67
(lp68
(dp69
S'file'
p70
S'C:\\Users\\T2-PEGE8301.06CEMTL\\Desktop\\environmentTestClonedFromGitHub\\unificaceAdmin\\web2py\\gluon\\restricted.py'
p71
sS'dump'
p72
(dp73
S'environment'
p74
S"{'A': <class 'gluon.html.A'>, 'ANY_OF': <class 'gluon.validators.ANY_OF'>, 'ASSIGNJS': <function ASSIGNJS>, 'AppConfig': <function AppConfig>, 'Auth': <class 'gluon.tools.Auth'>, 'B': <class 'gluon.html.B'>, 'BEAUTIFY': <class 'gluon.html.BEAUTIFY'>, 'BODY': <class 'gluon.html.BODY'>, 'BR': <class 'gluon.html.BR'>, 'BUTTON': <class 'gluon.html.BUTTON'>, ...}"
p75
sS'ccode'
p76
S'<code object <module> at 000000000C4F12B0, file ...ontrollers/gestion_retrofacturation.py", line 16>'
p77
ssS'lnum'
p78
I219
sS'lines'
p79
(dp80
I214
S'    if environment is None:'
p81
sI215
S'        environment = {}'
p82
sI216
S"    environment['__file__'] = layer"
p83
sI217
S"    environment['__name__'] = '__restricted__'"
p84
sI218
S'    try:'
p85
sI219
S'        exec(ccode, environment)'
p86
sI220
S'    except HTTP:'
p87
sI221
S'        raise'
p88
sI222
S'    except RestrictedError:'
p89
sI223
S'        # do not encapsulate (obfuscate) the original RestrictedError'
p90
ssS'call'
p91
S'(ccode=<code object <module> at 000000000C4F12B0, file ...ontrollers/gestion_retrofacturation.py", line 16>, environment={\'A\': <class \'gluon.html.A\'>, \'ANY_OF\': <class \'gluon.validators.ANY_OF\'>, \'ASSIGNJS\': <function ASSIGNJS>, \'AppConfig\': <function AppConfig>, \'Auth\': <class \'gluon.tools.Auth\'>, \'B\': <class \'gluon.html.B\'>, \'BEAUTIFY\': <class \'gluon.html.BEAUTIFY\'>, \'BODY\': <class \'gluon.html.BODY\'>, \'BR\': <class \'gluon.html.BR\'>, \'BUTTON\': <class \'gluon.html.BUTTON\'>, ...}, layer=r\'C:\\Users\\T2-PEGE8301.06CEMTL\\Desktop\\environment...ions\\init\\controllers/gestion_retrofacturation.py\', scode=<code object <module> at 000000000C4F12B0, file ...ontrollers/gestion_retrofacturation.py", line 16>)'
p92
sS'func'
p93
S'restricted'
p94
sa(dp95
g70
S'C:\\Users\\T2-PEGE8301.06CEMTL\\Desktop\\environmentTestClonedFromGitHub\\unificaceAdmin\\web2py\\applications\\init\\controllers\\gestion_retrofacturation.py'
p96
sg72
(dp97
sg78
I538
sg79
(dp98
I527
S''
sI528
S''
sI529
S'def call():'
p99
sI530
S'    """'
p100
sI531
S'    exposes services. for example:'
p101
sI532
S'    http://..../[app]/default/call/jsonrpc'
p102
sI533
S'    decorate with @services.jsonrpc the functions to expose'
p103
sI534
S'    supports xml, json, xmlrpc, jsonrpc, amfrpc, rss, csv'
p104
sI535
S'    """'
p105
sI536
S'    return service()'
p106
ssg91
S'()'
p107
sg93
S'<module>'
p108
sa(dp109
g70
S'C:\\Users\\T2-PEGE8301.06CEMTL\\Desktop\\environmentTestClonedFromGitHub\\unificaceAdmin\\web2py\\gluon\\globals.py'
p110
sg72
(dp111
S'self'
p112
S'undefined'
p113
sS'f'
S'<function importation>'
p114
ssg78
I419
sg79
(dp115
I416
S'        self.menu = []             # used by the default view layout'
p116
sI417
S'        self.files = []            # used by web2py_ajax.html'
p117
sI418
S'        self._vars = None'
p118
sI419
S'        self._caller = lambda f: f()'
p119
sI420
S'        self._view_environment = None'
p120
sI421
S'        self._custom_commit = None'
p121
sI422
S'        self._custom_rollback = None'
p122
sI423
S"        self.generic_patterns = ['*']"
p123
sI414
S"        self.flash = ''            # used by the default view layout"
p124
sI415
S'        self.meta = Storage()      # used by web2py_ajax.html'
p125
ssg91
S'(f=<function importation>)'
p126
sg93
S'<lambda>'
p127
sa(dp128
g70
S'C:\\Users\\T2-PEGE8301.06CEMTL\\Desktop\\environmentTestClonedFromGitHub\\unificaceAdmin\\web2py\\gluon\\tools.py'
p129
sg72
(dp130
S'action'
p131
S'<function importation>'
p132
sS'a'
S'()'
p133
sS'b'
g19
ssg78
I3982
sg79
(dp134
I3977
S'                    flag = condition'
p135
sI3978
S'                if not flag:'
p136
sI3979
S'                    current.session.flash = self.messages.access_denied'
p137
sI3980
S'                    return call_or_redirect('
p138
sI3981
S'                        self.settings.on_failed_authorization)'
p139
sI3982
S'                return action(*a, **b)'
p140
sI3983
S'            f.__doc__ = action.__doc__'
p141
sI3984
S'            f.__name__ = action.__name__'
p142
sI3985
S'            f.__dict__.update(action.__dict__)'
p143
sI3986
S'            return f'
p144
ssg91
S'(*a=(), **b={})'
p145
sg93
S'f'
sa(dp146
g70
S'C:\\Users\\T2-PEGE8301.06CEMTL\\Desktop\\environmentTestClonedFromGitHub\\unificaceAdmin\\web2py\\applications\\init\\controllers\\gestion_retrofacturation.py'
p147
sg72
(dp148
S'p1'
p149
g113
sS'stdout'
p150
g113
sS'subprocess.PIPE'
p151
S'-1'
p152
sS'script'
p153
S"r'C:\\Users\\unificace\\unificace\\web2py\\applications...retrofacturation\\read_octopus_retrofacturation.py'"
p154
sS'subprocess'
p155
S"<module 'subprocess' from 'C:\\Users\\T2-PEGE8301....lVersionOfUnificace\\Python27\\lib\\subprocess.pyc'>"
p156
sS'stderr'
p157
g113
sS'subprocess.Popen'
p158
S"<class 'subprocess.Popen'>"
p159
ssg78
I131
sg79
(dp160
I128
S'    #"""'
p161
sI129
S'    import subprocess'
p162
sI130
S"    script=r'C:\\Users\\unificace\\unificace\\web2py\\applications\\init\\scripts\\gestion_retrofacturation\\read_octopus_retrofacturation.py'"
p163
sI131
S"    p1 = subprocess.Popen([r'C:\\python27\\python.exe',script],stdout=subprocess.PIPE,stderr=subprocess.PIPE)"
p164
sI132
S'    output,error = p1.communicate()'
p165
sI133
S'    #"""'
p166
sI134
S'    rs=db(db.ci_octopus.id).select()'
p167
sI135
S'    db(db.ci_payment.completed==datetime.date(3000,1,1)).delete()'
p168
sI126
S'    #db(db.ci_payment.completed==datetime.date(3000,1,1)).update(to_update=False,)'
p169
sI127
S'    #read data from Octopus'
p170
ssg91
S'()'
p171
sg93
S'importation'
p172
sa(dp173
g70
S'C:\\Users\\T2-PEGE8301.06CEMTL\\Desktop\\UnificaceTestEnvironnment\\officialVersionOfUnificace\\Python27\\lib\\subprocess.py'
p174
sg72
(dp175
S'errwrite'
p176
S'<_subprocess_handle object>'
p177
sS'errread'
p178
S'<_subprocess_handle object>'
p179
ssg78
I390
sg79
(dp180
I385
S'            self._execute_child(args, executable, preexec_fn, close_fds,'
p181
sI386
S'                                cwd, env, universal_newlines,'
p182
sI387
S'                                startupinfo, creationflags, shell, to_close,'
p183
sI388
S'                                p2cread, p2cwrite,'
p184
sI389
S'                                c2pread, c2pwrite,'
p185
sI390
S'                                errread, errwrite)'
p186
sI391
S'        except Exception:'
p187
sI392
S'            # Preserve original exception in case os.close raises.'
p188
sI393
S'            exc_type, exc_value, exc_trace = sys.exc_info()'
p189
sI394
S''
ssg91
S"(self=<subprocess.Popen object>, args=[r'C:\\python27\\python.exe', r'C:\\Users\\unificace\\unificace\\web2py\\applications...retrofacturation\\read_octopus_retrofacturation.py'], bufsize=0, executable=None, stdin=None, stdout=-1, stderr=-1, preexec_fn=None, close_fds=False, shell=False, cwd=None, env=None, universal_newlines=False, startupinfo=None, creationflags=0)"
p190
sg93
g24
sa(dp191
g70
S'C:\\Users\\T2-PEGE8301.06CEMTL\\Desktop\\UnificaceTestEnvironnment\\officialVersionOfUnificace\\Python27\\lib\\subprocess.py'
p192
sg72
(dp193
S'startupinfo'
p194
S'<subprocess.STARTUPINFO instance>'
p195
ssg78
I640
sg79
(dp196
I640
S'                                         startupinfo)'
p197
sI641
S'            except pywintypes.error, e:'
p198
sI642
S'                # Translate pywintypes.error to WindowsError, which is'
p199
sI643
S'                # a subclass of OSError.  FIXME: We should really'
p200
sI644
S'                # translate errno using _sys_errlist (or similar), but'
p201
sI635
S'                                         None, None,'
p202
sI636
S'                                         int(not close_fds),'
p203
sI637
S'                                         creationflags,'
p204
sI638
S'                                         env,'
p205
sI639
S'                                         cwd,'
p206
ssg91
S"(self=<subprocess.Popen object>, args=r'C:\\python27\\python.exe C:\\Users\\unificace\\unific...retrofacturation\\read_octopus_retrofacturation.py', executable=None, preexec_fn=None, close_fds=False, cwd=None, env=None, universal_newlines=False, startupinfo=<subprocess.STARTUPINFO instance>, creationflags=0, shell=False, to_close=set([<_subprocess_handle object>, <_subprocess_handle object>]), p2cread=<_subprocess_handle object>, p2cwrite=None, c2pread=<_subprocess_handle object>, c2pwrite=<_subprocess_handle object>, errread=<_subprocess_handle object>, errwrite=<_subprocess_handle object>)"
p207
sg93
S'_execute_child'
p208
sasS'pyver'
p209
S'Python 2.7.13: C:\\Users\\T2-PEGE8301.06CEMTL\\Desktop\\UnificaceTestEnvironnment\\officialVersionOfUnificace\\Python27\\python.exe (prefix: C:\\Users\\T2-PEGE8301.06CEMTL\\Desktop\\UnificaceTestEnvironnment\\officialVersionOfUnificace\\Python27)'
p210
sS'session'
p211
g65
(S'ss\t\x00\x00<div><table><tr><td style="font-weight:bold;vertical-align:top;">auth</td><td style="vertical-align:top;">:</td><td><div><table><tr><td style="font-weight:bold;vertical-align:top;">expiration</td><td style="vertical-align:top;">:</td><td><div>3600</div></td></tr><tr><td style="font-weight:bold;vertical-align:top;">hmac_key</td><td style="vertical-align:top;">:</td><td><div>cc1b693f-88fa-4c07-b308-1d6397cffb30</div></td></tr><tr><td style="font-weight:bold;vertical-align:top;">last_visit</td><td style="vertical-align:top;">:</td><td><div>datetime.datetime(2024, 2, 1, 10, 28, 25, 257000)</div></td></tr><tr><td style="font-weight:bold;vertical-align:top;">remember_me</td><td style="vertical-align:top;">:</td><td><div>False</div></td></tr><tr><td style="font-weight:bold;vertical-align:top;">user</td><td style="vertical-align:top;">:</td><td><div><table><tr><td style="font-weight:bold;vertical-align:top;">email</td><td style="vertical-align:top;">:</td><td><div></div></td></tr><tr><td style="font-weight:bold;vertical-align:top;">first_name</td><td style="vertical-align:top;">:</td><td><div>t1-unificace</div></td></tr><tr><td style="font-weight:bold;vertical-align:top;">id</td><td style="vertical-align:top;">:</td><td><div>4397L</div></td></tr><tr><td style="font-weight:bold;vertical-align:top;">last_name</td><td style="vertical-align:top;">:</td><td><div></div></td></tr><tr><td style="font-weight:bold;vertical-align:top;">registration_id</td><td style="vertical-align:top;">:</td><td><div>t1-unificace</div></td></tr><tr><td style="font-weight:bold;vertical-align:top;">registration_key</td><td style="vertical-align:top;">:</td><td><div></div></td></tr><tr><td style="font-weight:bold;vertical-align:top;">reset_password_key</td><td style="vertical-align:top;">:</td><td><div></div></td></tr><tr><td style="font-weight:bold;vertical-align:top;">username</td><td style="vertical-align:top;">:</td><td><div>t1-unificace</div></td></tr></table></div></td></tr><tr><td style="font-weight:bold;vertical-align:top;">user_groups</td><td style="vertical-align:top;">:</td><td><div><table><tr><td style="font-weight:bold;vertical-align:top;">3</td><td style="vertical-align:top;">:</td><td><div>admin</div></td></tr></table></div></td></tr></table></div></td></tr><tr><td style="font-weight:bold;vertical-align:top;">flash</td><td style="vertical-align:top;">:</td><td><div>None</div></td></tr></table></div>'
tRp212
sS'etype'
p213
S"<type 'exceptions.WindowsError'>"
p214
sS'date'
p215
S'Thu Feb 01 10:28:39 2024'
p216
sS'response'
p217
g65
(S's&>\x00\x00<div><table><tr><td style="font-weight:bold;vertical-align:top;">body</td><td style="vertical-align:top;">:</td><td><div>&lt;cStringIO.StringO object at 0x0000000005D9C618&gt;</div></td></tr><tr><td style="font-weight:bold;vertical-align:top;">cookies</td><td style="vertical-align:top;">:</td><td><div><table><tr><td style="font-weight:bold;vertical-align:top;">session_id_init</td><td style="vertical-align:top;">:</td><td><div>127.0.0.1-5ccd5a59-23f2-4568-bc07-06799bf0b5c7<table><tr><td style="font-weight:bold;vertical-align:top;">comment</td><td style="vertical-align:top;">:</td><td><div></div></td></tr><tr><td style="font-weight:bold;vertical-align:top;">domain</td><td style="vertical-align:top;">:</td><td><div></div></td></tr><tr><td style="font-weight:bold;vertical-align:top;">expires</td><td style="vertical-align:top;">:</td><td><div></div></td></tr><tr><td style="font-weight:bold;vertical-align:top;">httponly</td><td style="vertical-align:top;">:</td><td><div></div></td></tr><tr><td style="font-weight:bold;vertical-align:top;">max-age</td><td style="vertical-align:top;">:</td><td><div></div></td></tr><tr><td style="font-weight:bold;vertical-align:top;">path</td><td style="vertical-align:top;">:</td><td><div>/</div></td></tr><tr><td style="font-weight:bold;vertical-align:top;">secure</td><td style="vertical-align:top;">:</td><td><div></div></td></tr><tr><td style="font-weight:bold;vertical-align:top;">version</td><td style="vertical-align:top;">:</td><td><div></div></td></tr></table></div></td></tr></table></div></td></tr><tr><td style="font-weight:bold;vertical-align:top;">delimiters</td><td style="vertical-align:top;">:</td><td><div><table><tr><td><div>{{</div></td></tr><tr><td><div>}}</div></td></tr></table></div></td></tr><tr><td style="font-weight:bold;vertical-align:top;">files</td><td style="vertical-align:top;">:</td><td><div><table></table></div></td></tr><tr><td style="font-weight:bold;vertical-align:top;">flash</td><td style="vertical-align:top;">:</td><td><div></div></td></tr><tr><td style="font-weight:bold;vertical-align:top;">form_label_separator</td><td style="vertical-align:top;">:</td><td><div></div></td></tr><tr><td style="font-weight:bold;vertical-align:top;">formstyle</td><td style="vertical-align:top;">:</td><td><div>bootstrap3_inline</div></td></tr><tr><td style="font-weight:bold;vertical-align:top;">generic_patterns</td><td style="vertical-align:top;">:</td><td><div><table><tr><td><div>*</div></td></tr></table></div></td></tr><tr><td style="font-weight:bold;vertical-align:top;">google_analytics_id</td><td style="vertical-align:top;">:</td><td><div>None</div></td></tr><tr><td style="font-weight:bold;vertical-align:top;">headers</td><td style="vertical-align:top;">:</td><td><div><table><tr><td style="font-weight:bold;vertical-align:top;">X-Powered-By</td><td style="vertical-align:top;">:</td><td><div>web2py</div></td></tr></table></div></td></tr><tr><td style="font-weight:bold;vertical-align:top;">logo</td><td style="vertical-align:top;">:</td><td><div><a class="navbar-brand" href="https://unificace.cemtl.rtss.qc.ca" id="web2py-logo"><b>Unificace</b></a></div></td></tr><tr><td style="font-weight:bold;vertical-align:top;">menu</td><td style="vertical-align:top;">:</td><td><div><table><tr><td><div><table><tr><td><div>Menu</div></td></tr><tr><td><div>False</div></td></tr><tr><td><div>#</div></td></tr><tr><td><div><table><tr><td><div><table><tr><td><div>Accueil</div></td></tr><tr><td><div>False</div></td></tr><tr><td><div>/init/default/index</div></td></tr><tr><td><div>[]</div></td></tr></table></div></td></tr><tr><td><div><table><tr><td><div>Actualisation des inventaires</div></td></tr><tr><td><div>False</div></td></tr><tr><td><div>/init/actualisation_inventaires/index</div></td></tr><tr><td><div>[]</div></td></tr></table></div></td></tr><tr><td><div><table><tr><td><div>Gestion des absences</div></td></tr><tr><td><div>False</div></td></tr><tr><td><div>/init/gestion_absence/absences_menu</div></td></tr><tr><td><div>[]</div></td></tr></table></div></td></tr><tr><td><div><table><tr><td><div>Gestion des ADs</div></td></tr><tr><td><div>False</div></td></tr><tr><td><div>/init/gestion_ads/index</div></td></tr><tr><td><div>[]</div></td></tr></table></div></td></tr><tr><td><div><table><tr><td><div>Gestion des inventaires</div></td></tr><tr><td><div>False</div></td></tr><tr><td><div>/init/gestion_inventaires/index</div></td></tr><tr><td><div>[]</div></td></tr></table></div></td></tr><tr><td><div><table><tr><td><div>Gestion des \xc3\xa9crans d\'affichage</div></td></tr><tr><td><div>False</div></td></tr><tr><td><div>/init/gestion_affichage/index</div></td></tr><tr><td><div>[]</div></td></tr></table></div></td></tr><tr><td><div><table><tr><td><div>Gestion de capacit\xc3\xa9 RH (projet)</div></td></tr><tr><td><div>False</div></td></tr><tr><td><div>/init/gestion_ressources/index</div></td></tr><tr><td><div>[]</div></td></tr></table></div></td></tr><tr><td><div><table><tr><td><div>Gestion des acc\xc3\xa8s g\xc3\xa9n\xc3\xa9rique</div></td></tr><tr><td><div>False</div></td></tr><tr><td><div>/init/gestion_acces_generique/index</div></td></tr><tr><td><div>[]</div></td></tr></table></div></td></tr><tr><td><div><table><tr><td><div>Calendrier des changements</div></td></tr><tr><td><div>False</div></td></tr><tr><td><div>/init/gestion_temps/index</div></td></tr><tr><td><div>[]</div></td></tr></table></div></td></tr><tr><td><div><table><tr><td><div>Gestion des courriels</div></td></tr><tr><td><div>False</div></td></tr><tr><td><div>/init/gestion_courriels/index</div></td></tr><tr><td><div>[]</div></td></tr></table></div></td></tr><tr><td><div><table><tr><td><div>Gestion de fichiers</div></td></tr><tr><td><div>False</div></td></tr><tr><td><div>/init/gestion_fichiers/index</div></td></tr><tr><td><div>[]</div></td></tr></table></div></td></tr><tr><td><div><table><tr><td><div>Gestion des factures (Telus)</div></td></tr><tr><td><div>False</div></td></tr><tr><td><div>/init/gestion_factures/index</div></td></tr><tr><td><div>[]</div></td></tr></table></div></td></tr><tr><td><div><table><tr><td><div>Gestion des importations vers Octopus</div></td></tr><tr><td><div>False</div></td></tr><tr><td><div>/init/gestion_octopus/index</div></td></tr><tr><td><div>[]</div></td></tr></table></div></td></tr><tr><td><div><table><tr><td><div>Gestion d\'impression</div></td></tr><tr><td><div>False</div></td></tr><tr><td><div>/init/gestion_impression/index</div></td></tr><tr><td><div>[]</div></td></tr></table></div></td></tr><tr><td><div><table><tr><td><div>L\'inventaire des serveurs</div></td></tr><tr><td><div>False</div></td></tr><tr><td><div>/init/gestion_serveurs/index</div></td></tr><tr><td><div>[]</div></td></tr></table></div></td></tr><tr><td><div><table><tr><td><div>Gestion de mappage (utilisateur au lecteur r\xc3\xa9seau)</div></td></tr><tr><td><div>False</div></td></tr><tr><td><div>/init/mappage_reseau/index</div></td></tr><tr><td><div>[]</div></td></tr></table></div></td></tr><tr><td><div><table><tr><td><div>Gestion de mappage (imprimante au client l\xc3\xa9ger)</div></td></tr><tr><td><div>False</div></td></tr><tr><td><div>/init/gestion_imprimantes/index</div></td></tr><tr><td><div>[]</div></td></tr></table></div></td></tr><tr><td><div><table><tr><td><div>Gestion du proxy</div></td></tr><tr><td><div>False</div></td></tr><tr><td><div>/init/gestion_proxy/index</div></td></tr><tr><td><div>[]</div></td></tr></table></div></td></tr><tr><td><div><table><tr><td><div>Gestion des PVS</div></td></tr><tr><td><div>False</div></td></tr><tr><td><div>/init/gestion_pvs/index</div></td></tr><tr><td><div>[]</div></td></tr></table></div></td></tr><tr><td><div><table><tr><td><div>Gestion RDM &amp; RDP</div></td></tr><tr><td><div>False</div></td></tr><tr><td><div>/init/gestion_rdm_rdp/index</div></td></tr><tr><td><div>[]</div></td></tr></table></div></td></tr><tr><td><div><table><tr><td><div>Gestion des serveurs</div></td></tr><tr><td><div>False</div></td></tr><tr><td><div>/init/gestion_vms/index</div></td></tr><tr><td><div>[]</div></td></tr></table></div></td></tr><tr><td><div><table><tr><td><div>R\xc3\xa9trofacturation du compte bilan</div></td></tr><tr><td><div>False</div></td></tr><tr><td><div>/init/gestion_retrofacturation/index</div></td></tr><tr><td><div>[]</div></td></tr></table></div></td></tr><tr><td><div><table><tr><td><div>Calendrier financier</div></td></tr><tr><td><div>False</div></td></tr><tr><td><div>/init/gestion_finance/index</div></td></tr><tr><td><div>[]</div></td></tr></table></div></td></tr><tr><td><div><table><tr><td><div>Nomenclature pour des alias</div></td></tr><tr><td><div>False</div></td></tr><tr><td><div>/init/gestion_nomenclature/index</div></td></tr><tr><td><div>[]</div></td></tr></table></div></td></tr><tr><td><div><table><tr><td><div>Surveillance des alertes</div></td></tr><tr><td><div>False</div></td></tr><tr><td><div>/init/alerts_monitoring/index</div></td></tr><tr><td><div>[]</div></td></tr></table></div></td></tr><tr><td><div><table><tr><td><div>Base de donn\xc3\xa9es</div></td></tr><tr><td><div>False</div></td></tr><tr><td><div>/init/database/index</div></td></tr><tr><td><div>[]</div></td></tr></table></div></td></tr><tr><td><div><table><tr><td><div>Gestion des acc\xc3\xa8s</div></td></tr><tr><td><div>False</div></td></tr><tr><td><div>/init/gestion_acces/index</div></td></tr><tr><td><div>[]</div></td></tr></table></div></td></tr><tr><td><div><table><tr><td><div>\xc3\x80 propos</div></td></tr><tr><td><div>False</div></td></tr><tr><td><div>/init/about/index</div></td></tr><tr><td><div>[]</div></td></tr></table></div></td></tr></table></div></td></tr></table></div></td></tr><tr><td><div><table><tr><td><div>R\xc3\xa9trofacturation du compte bilan</div></td></tr><tr><td><div>False</div></td></tr><tr><td><div>#</div></td></tr><tr><td><div><table><tr><td><div><table><tr><td><div>Guide d\'utilisation du module</div></td></tr><tr><td><div>False</div></td></tr><tr><td><div>/init/gestion_retrofacturation/index</div></td></tr><tr><td><div>[]</div></td></tr></table></div></td></tr><tr><td><div><table><tr><td><div>Importation</div></td></tr><tr><td><div>False</div></td></tr><tr><td><div>/init/gestion_retrofacturation/importation</div></td></tr><tr><td><div>[]</div></td></tr></table></div></td></tr><tr><td><div><table><tr><td><div>Validation</div></td></tr><tr><td><div>False</div></td></tr><tr><td><div>/init/gestion_retrofacturation/validation</div></td></tr><tr><td><div>[]</div></td></tr></table></div></td></tr><tr><td><div><table><tr><td><div>Exportation</div></td></tr><tr><td><div>False</div></td></tr><tr><td><div>/init/gestion_retrofacturation/exportation</div></td></tr><tr><td><div>[]</div></td></tr></table></div></td></tr><tr><td><div><table><tr><td><div>Entrep\xc3\xb4t des fichiers</div></td></tr><tr><td><div>False</div></td></tr><tr><td><div>/init/gestion_retrofacturation/ci_files</div></td></tr><tr><td><div>[]</div></td></tr></table></div></td></tr><tr><td><div><table><tr><td><div>Synchronisation avec Octopus</div></td></tr><tr><td><div>False</div></td></tr><tr><td><div>/init/gestion_retrofacturation/validation_octopus</div></td></tr><tr><td><div>[]</div></td></tr></table></div></td></tr><tr><td><div><table><tr><td><div>Historique de r\xc3\xa9trofacturation</div></td></tr><tr><td><div>False</div></td></tr><tr><td><div>/init/gestion_retrofacturation/history</div></td></tr><tr><td><div>[]</div></td></tr></table></div></td></tr><tr><td><div><table><tr><td><div>Tables de configuration</div></td></tr><tr><td><div>False</div></td></tr><tr><td><div>/init/gestion_retrofacturation/tables</div></td></tr><tr><td><div>[]</div></td></tr></table></div></td></tr></table></div></td></tr></table></div></td></tr></table></div></td></tr><tr><td style="font-weight:bold;vertical-align:top;">meta</td><td style="vertical-align:top;">:</td><td><div><table><tr><td style="font-weight:bold;vertical-align:top;">author</td><td style="vertical-align:top;">:</td><td><div>Vilounha Phanalasy &lt;vphanalasy@ssss.gouv.qc.ca&gt;</div></td></tr><tr><td style="font-weight:bold;vertical-align:top;">description</td><td style="vertical-align:top;">:</td><td><div>a cool new app</div></td></tr><tr><td style="font-weight:bold;vertical-align:top;">generator</td><td style="vertical-align:top;">:</td><td><div>Web2py Web Framework</div></td></tr><tr><td style="font-weight:bold;vertical-align:top;">keywords</td><td style="vertical-align:top;">:</td><td><div><table><tr><td><div>web2py</div></td></tr><tr><td><div>python</div></td></tr><tr><td><div>framework</div></td></tr></table></div></td></tr></table></div></td></tr><tr><td style="font-weight:bold;vertical-align:top;">models_to_run</td><td style="vertical-align:top;">:</td><td><div><table><tr><td><div>^\\w+\\.py$</div></td></tr><tr><td><div>^gestion_retrofacturation/\\w+\\.py$</div></td></tr><tr><td><div>^gestion_retrofacturation/importation/\\w+\\.py$</div></td></tr></table></div></td></tr><tr><td style="font-weight:bold;vertical-align:top;">postprocessing</td><td style="vertical-align:top;">:</td><td><div><table></table></div></td></tr><tr><td style="font-weight:bold;vertical-align:top;">session_client</td><td style="vertical-align:top;">:</td><td><div>127.0.0.1</div></td></tr><tr><td style="font-weight:bold;vertical-align:top;">session_cookie_compression_level</td><td style="vertical-align:top;">:</td><td><div>None</div></td></tr><tr><td style="font-weight:bold;vertical-align:top;">session_cookie_expires</td><td style="vertical-align:top;">:</td><td><div>None</div></td></tr><tr><td style="font-weight:bold;vertical-align:top;">session_data_name</td><td style="vertical-align:top;">:</td><td><div>session_data_init</div></td></tr><tr><td style="font-weight:bold;vertical-align:top;">session_file</td><td style="vertical-align:top;">:</td><td><div>&lt;open file &#x27;C:\\\\Users\\\\T2-PEGE8301.06CEMTL\\\\Desktop\\\\environmentTestClonedFromGitHub\\\\unificaceAdmin\\\\web2py\\\\applications\\\\init\\\\sessions\\\\17b\\\\0f5\\\\127.0.0.1-5ccd5a59-23f2-4568-bc07-06799bf0b5c7&#x27;, mode &#x27;rb+&#x27; at 0x000000000484BB70&gt;</div></td></tr><tr><td style="font-weight:bold;vertical-align:top;">session_filename</td><td style="vertical-align:top;">:</td><td><div>C:\\Users\\T2-PEGE8301.06CEMTL\\Desktop\\environmentTestClonedFromGitHub\\unificaceAdmin\\web2py\\applications\\init\\sessions\\127.0.0.1-5ccd5a59-23f2-4568-bc07-06799bf0b5c7</div></td></tr><tr><td style="font-weight:bold;vertical-align:top;">session_hash</td><td style="vertical-align:top;">:</td><td><div>d0a0cd3701729b4a5379c016f58a911a</div></td></tr><tr><td style="font-weight:bold;vertical-align:top;">session_id</td><td style="vertical-align:top;">:</td><td><div>127.0.0.1-5ccd5a59-23f2-4568-bc07-06799bf0b5c7</div></td></tr><tr><td style="font-weight:bold;vertical-align:top;">session_id_name</td><td style="vertical-align:top;">:</td><td><div>session_id_init</div></td></tr><tr><td style="font-weight:bold;vertical-align:top;">session_locked</td><td style="vertical-align:top;">:</td><td><div>True</div></td></tr><tr><td style="font-weight:bold;vertical-align:top;">session_masterapp</td><td style="vertical-align:top;">:</td><td><div>init</div></td></tr><tr><td style="font-weight:bold;vertical-align:top;">session_new</td><td style="vertical-align:top;">:</td><td><div>False</div></td></tr><tr><td style="font-weight:bold;vertical-align:top;">session_storage_type</td><td style="vertical-align:top;">:</td><td><div>file</div></td></tr><tr><td style="font-weight:bold;vertical-align:top;">status</td><td style="vertical-align:top;">:</td><td><div>200</div></td></tr><tr><td style="font-weight:bold;vertical-align:top;">subtitle</td><td style="vertical-align:top;">:</td><td><div></div></td></tr><tr><td style="font-weight:bold;vertical-align:top;">title</td><td style="vertical-align:top;">:</td><td><div>Init</div></td></tr><tr><td style="font-weight:bold;vertical-align:top;">view</td><td style="vertical-align:top;">:</td><td><div>gestion_retrofacturation/importation.html</div></td></tr></table></div>'
tRp218
sS'locals'
p219
(dp220
S'to_close'
p221
S'set([<_subprocess_handle object>, <_subprocess_handle object>])'
p222
sS'shell'
p223
S'False'
p224
sS'p2cread'
p225
S'<_subprocess_handle object>'
p226
sS'errread'
p227
S'<_subprocess_handle object>'
p228
sS'startupinfo'
p229
S'<subprocess.STARTUPINFO instance>'
p230
sS'close_fds'
p231
g224
sS'c2pread'
p232
S'<_subprocess_handle object>'
p233
sg47
S"r'C:\\python27\\python.exe C:\\Users\\unificace\\unific...retrofacturation\\read_octopus_retrofacturation.py'"
p234
sS'executable'
p235
S'None'
p236
sS'errwrite'
p237
S'<_subprocess_handle object>'
p238
sS'self'
p239
S'<subprocess.Popen object>'
p240
sS'_close_in_parent'
p241
S'<function _close_in_parent>'
p242
sS'p2cwrite'
p243
S'None'
p244
sS'env'
p245
S'None'
p246
sS'creationflags'
p247
S'0'
sS'c2pwrite'
p248
S'<_subprocess_handle object>'
p249
sS'universal_newlines'
p250
g224
sS'cwd'
p251
S'None'
p252
sS'preexec_fn'
p253
S'None'
p254
sssS'traceback'
p255
S'Traceback (most recent call last):\n  File "C:\\Users\\T2-PEGE8301.06CEMTL\\Desktop\\environmentTestClonedFromGitHub\\unificaceAdmin\\web2py\\gluon\\restricted.py", line 219, in restricted\n    exec(ccode, environment)\n  File "C:\\Users\\T2-PEGE8301.06CEMTL\\Desktop\\environmentTestClonedFromGitHub\\unificaceAdmin\\web2py\\applications\\init\\controllers/gestion_retrofacturation.py", line 538, in <module>\n  File "C:\\Users\\T2-PEGE8301.06CEMTL\\Desktop\\environmentTestClonedFromGitHub\\unificaceAdmin\\web2py\\gluon\\globals.py", line 419, in <lambda>\n    self._caller = lambda f: f()\n  File "C:\\Users\\T2-PEGE8301.06CEMTL\\Desktop\\environmentTestClonedFromGitHub\\unificaceAdmin\\web2py\\gluon\\tools.py", line 3982, in f\n    return action(*a, **b)\n  File "C:\\Users\\T2-PEGE8301.06CEMTL\\Desktop\\environmentTestClonedFromGitHub\\unificaceAdmin\\web2py\\applications\\init\\controllers/gestion_retrofacturation.py", line 131, in importation\n    p1 = subprocess.Popen([r\'C:\\python27\\python.exe\',script],stdout=subprocess.PIPE,stderr=subprocess.PIPE)\n  File "C:\\Users\\T2-PEGE8301.06CEMTL\\Desktop\\UnificaceTestEnvironnment\\officialVersionOfUnificace\\Python27\\lib\\subprocess.py", line 390, in __init__\n    errread, errwrite)\n  File "C:\\Users\\T2-PEGE8301.06CEMTL\\Desktop\\UnificaceTestEnvironnment\\officialVersionOfUnificace\\Python27\\lib\\subprocess.py", line 640, in _execute_child\n    startupinfo)\nWindowsError: [Error 2] Le fichier sp\xe9cifi\xe9 est introuvable\n'
p256
s.